

Microchip MPLAB XC8 Assembler V2.36 build 20220127204148 
                                                                                               Wed Apr 27 06:38:08 2022

Microchip MPLAB XC8 C Compiler v2.36 (Free license) build 20220127204148 Og1 
     1                           	processor	16F886
     2                           	pagewidth 120
     3                           	opt	flic
     4                           	psect	cinit,global,class=CODE,merge=1,delta=2
     5                           	psect	cstackCOMMON,global,class=COMMON,space=1,delta=1,noexec
     6                           	psect	cstackBANK0,global,class=BANK0,space=1,delta=1,noexec
     7                           	psect	maintext,global,class=CODE,split=1,delta=2
     8                           	psect	text1,local,class=CODE,merge=1,delta=2
     9                           	psect	text2,local,class=CODE,merge=1,delta=2
    10                           	psect	text3,local,class=CODE,merge=1,delta=2
    11                           	psect	text4,local,class=CODE,merge=1,delta=2
    12                           	psect	text5,local,class=CODE,merge=1,delta=2
    13                           	psect	text6,local,class=CODE,merge=1,delta=2
    14                           	psect	text7,local,class=CODE,merge=1,delta=2
    15                           	psect	text8,local,class=CODE,merge=1,delta=2,group=1
    16                           	psect	text9,local,class=CODE,merge=1,delta=2,group=1
    17                           	psect	text10,local,class=CODE,merge=1,delta=2,group=1
    18                           	psect	idloc,global,abs,ovrld,class=IDLOC,space=5,delta=2,noexec
    19                           	psect	config,global,abs,ovrld,class=CONFIG,space=4,delta=2,noexec
    20                           	dabs	1,0x7E,2
    21  0000                     
    22                           ; Version 2.40
    23                           ; Generated 17/11/2021 GMT
    24                           ; 
    25                           ; Copyright © 2021, Microchip Technology Inc. and its subsidiaries ("Microchip")
    26                           ; All rights reserved.
    27                           ; 
    28                           ; This software is developed by Microchip Technology Inc. and its subsidiaries ("Microch
      +                          ip").
    29                           ; 
    30                           ; Redistribution and use in source and binary forms, with or without modification, are
    31                           ; permitted provided that the following conditions are met:
    32                           ; 
    33                           ;     1. Redistributions of source code must retain the above copyright notice, this lis
      +                          t of
    34                           ;        conditions and the following disclaimer.
    35                           ; 
    36                           ;     2. Redistributions in binary form must reproduce the above copyright notice, this 
      +                          list
    37                           ;        of conditions and the following disclaimer in the documentation and/or other
    38                           ;        materials provided with the distribution. Publication is not required when
    39                           ;        this file is used in an embedded application.
    40                           ; 
    41                           ;     3. Microchip's name may not be used to endorse or promote products derived from th
      +                          is
    42                           ;        software without specific prior written permission.
    43                           ; 
    44                           ; THIS SOFTWARE IS PROVIDED BY MICROCHIP "AS IS" AND ANY EXPRESS OR IMPLIED WARRANTIES,
    45                           ; INCLUDING, BUT NOT LIMITED TO, THE IMPLIED WARRANTIES OF MERCHANTABILITY AND FITNESS F
      +                          OR
    46                           ; PURPOSE ARE DISCLAIMED.  IN NO EVENT SHALL MICROCHIP BE LIABLE FOR ANY DIRECT, INDIREC
      +                          T,
    47                           ; INCIDENTAL, SPECIAL, EXEMPLARY, OR CONSEQUENTIAL DAMAGES (INCLUDING BUT NOT LIMITED TO
    48                           ; PROCUREMENT OF SUBSTITUTE GOODS OR SERVICES; LOSS OF USE, DATA OR PROFITS; OR BUSINESS
    49                           ; INTERRUPTION) HOWSOEVER CAUSED AND ON ANY THEORY OF LIABILITY, WHETHER IN CONTRACT, ST
      +                          RICT
    50                           ; LIABILITY, OR TORT (INCLUDING NEGLIGENCE OR OTHERWISE) ARISING IN ANY WAY OUT OF THE U
      +                          SE OF
    51                           ; THIS SOFTWARE, EVEN IF ADVISED OF THE POSSIBILITY OF SUCH DAMAGE.
    52                           ; 
    53                           ; 
    54                           ; Code-generator required, PIC16F886 Definitions
    55                           ; 
    56                           ; SFR Addresses
    57  0000                     	;# 
    58  0001                     	;# 
    59  0002                     	;# 
    60  0003                     	;# 
    61  0004                     	;# 
    62  0005                     	;# 
    63  0006                     	;# 
    64  0007                     	;# 
    65  0009                     	;# 
    66  000A                     	;# 
    67  000B                     	;# 
    68  000C                     	;# 
    69  000D                     	;# 
    70  000E                     	;# 
    71  000E                     	;# 
    72  000F                     	;# 
    73  0010                     	;# 
    74  0011                     	;# 
    75  0012                     	;# 
    76  0013                     	;# 
    77  0014                     	;# 
    78  0015                     	;# 
    79  0015                     	;# 
    80  0016                     	;# 
    81  0017                     	;# 
    82  0018                     	;# 
    83  0019                     	;# 
    84  001A                     	;# 
    85  001B                     	;# 
    86  001B                     	;# 
    87  001C                     	;# 
    88  001D                     	;# 
    89  001E                     	;# 
    90  001F                     	;# 
    91  0081                     	;# 
    92  0085                     	;# 
    93  0086                     	;# 
    94  0087                     	;# 
    95  0089                     	;# 
    96  008C                     	;# 
    97  008D                     	;# 
    98  008E                     	;# 
    99  008F                     	;# 
   100  0090                     	;# 
   101  0091                     	;# 
   102  0092                     	;# 
   103  0093                     	;# 
   104  0093                     	;# 
   105  0093                     	;# 
   106  0094                     	;# 
   107  0095                     	;# 
   108  0096                     	;# 
   109  0097                     	;# 
   110  0098                     	;# 
   111  0099                     	;# 
   112  009A                     	;# 
   113  009B                     	;# 
   114  009C                     	;# 
   115  009D                     	;# 
   116  009E                     	;# 
   117  009F                     	;# 
   118  0105                     	;# 
   119  0107                     	;# 
   120  0108                     	;# 
   121  0109                     	;# 
   122  010C                     	;# 
   123  010C                     	;# 
   124  010D                     	;# 
   125  010E                     	;# 
   126  010F                     	;# 
   127  0185                     	;# 
   128  0187                     	;# 
   129  0188                     	;# 
   130  0189                     	;# 
   131  018C                     	;# 
   132  018D                     	;# 
   133  0000                     	;# 
   134  0001                     	;# 
   135  0002                     	;# 
   136  0003                     	;# 
   137  0004                     	;# 
   138  0005                     	;# 
   139  0006                     	;# 
   140  0007                     	;# 
   141  0009                     	;# 
   142  000A                     	;# 
   143  000B                     	;# 
   144  000C                     	;# 
   145  000D                     	;# 
   146  000E                     	;# 
   147  000E                     	;# 
   148  000F                     	;# 
   149  0010                     	;# 
   150  0011                     	;# 
   151  0012                     	;# 
   152  0013                     	;# 
   153  0014                     	;# 
   154  0015                     	;# 
   155  0015                     	;# 
   156  0016                     	;# 
   157  0017                     	;# 
   158  0018                     	;# 
   159  0019                     	;# 
   160  001A                     	;# 
   161  001B                     	;# 
   162  001B                     	;# 
   163  001C                     	;# 
   164  001D                     	;# 
   165  001E                     	;# 
   166  001F                     	;# 
   167  0081                     	;# 
   168  0085                     	;# 
   169  0086                     	;# 
   170  0087                     	;# 
   171  0089                     	;# 
   172  008C                     	;# 
   173  008D                     	;# 
   174  008E                     	;# 
   175  008F                     	;# 
   176  0090                     	;# 
   177  0091                     	;# 
   178  0092                     	;# 
   179  0093                     	;# 
   180  0093                     	;# 
   181  0093                     	;# 
   182  0094                     	;# 
   183  0095                     	;# 
   184  0096                     	;# 
   185  0097                     	;# 
   186  0098                     	;# 
   187  0099                     	;# 
   188  009A                     	;# 
   189  009B                     	;# 
   190  009C                     	;# 
   191  009D                     	;# 
   192  009E                     	;# 
   193  009F                     	;# 
   194  0105                     	;# 
   195  0107                     	;# 
   196  0108                     	;# 
   197  0109                     	;# 
   198  010C                     	;# 
   199  010C                     	;# 
   200  010D                     	;# 
   201  010E                     	;# 
   202  010F                     	;# 
   203  0185                     	;# 
   204  0187                     	;# 
   205  0188                     	;# 
   206  0189                     	;# 
   207  018C                     	;# 
   208  018D                     	;# 
   209  0000                     	;# 
   210  0001                     	;# 
   211  0002                     	;# 
   212  0003                     	;# 
   213  0004                     	;# 
   214  0005                     	;# 
   215  0006                     	;# 
   216  0007                     	;# 
   217  0009                     	;# 
   218  000A                     	;# 
   219  000B                     	;# 
   220  000C                     	;# 
   221  000D                     	;# 
   222  000E                     	;# 
   223  000E                     	;# 
   224  000F                     	;# 
   225  0010                     	;# 
   226  0011                     	;# 
   227  0012                     	;# 
   228  0013                     	;# 
   229  0014                     	;# 
   230  0015                     	;# 
   231  0015                     	;# 
   232  0016                     	;# 
   233  0017                     	;# 
   234  0018                     	;# 
   235  0019                     	;# 
   236  001A                     	;# 
   237  001B                     	;# 
   238  001B                     	;# 
   239  001C                     	;# 
   240  001D                     	;# 
   241  001E                     	;# 
   242  001F                     	;# 
   243  0081                     	;# 
   244  0085                     	;# 
   245  0086                     	;# 
   246  0087                     	;# 
   247  0089                     	;# 
   248  008C                     	;# 
   249  008D                     	;# 
   250  008E                     	;# 
   251  008F                     	;# 
   252  0090                     	;# 
   253  0091                     	;# 
   254  0092                     	;# 
   255  0093                     	;# 
   256  0093                     	;# 
   257  0093                     	;# 
   258  0094                     	;# 
   259  0095                     	;# 
   260  0096                     	;# 
   261  0097                     	;# 
   262  0098                     	;# 
   263  0099                     	;# 
   264  009A                     	;# 
   265  009B                     	;# 
   266  009C                     	;# 
   267  009D                     	;# 
   268  009E                     	;# 
   269  009F                     	;# 
   270  0105                     	;# 
   271  0107                     	;# 
   272  0108                     	;# 
   273  0109                     	;# 
   274  010C                     	;# 
   275  010C                     	;# 
   276  010D                     	;# 
   277  010E                     	;# 
   278  010F                     	;# 
   279  0185                     	;# 
   280  0187                     	;# 
   281  0188                     	;# 
   282  0189                     	;# 
   283  018C                     	;# 
   284  018D                     	;# 
   285  0000                     	;# 
   286  0001                     	;# 
   287  0002                     	;# 
   288  0003                     	;# 
   289  0004                     	;# 
   290  0005                     	;# 
   291  0006                     	;# 
   292  0007                     	;# 
   293  0009                     	;# 
   294  000A                     	;# 
   295  000B                     	;# 
   296  000C                     	;# 
   297  000D                     	;# 
   298  000E                     	;# 
   299  000E                     	;# 
   300  000F                     	;# 
   301  0010                     	;# 
   302  0011                     	;# 
   303  0012                     	;# 
   304  0013                     	;# 
   305  0014                     	;# 
   306  0015                     	;# 
   307  0015                     	;# 
   308  0016                     	;# 
   309  0017                     	;# 
   310  0018                     	;# 
   311  0019                     	;# 
   312  001A                     	;# 
   313  001B                     	;# 
   314  001B                     	;# 
   315  001C                     	;# 
   316  001D                     	;# 
   317  001E                     	;# 
   318  001F                     	;# 
   319  0081                     	;# 
   320  0085                     	;# 
   321  0086                     	;# 
   322  0087                     	;# 
   323  0089                     	;# 
   324  008C                     	;# 
   325  008D                     	;# 
   326  008E                     	;# 
   327  008F                     	;# 
   328  0090                     	;# 
   329  0091                     	;# 
   330  0092                     	;# 
   331  0093                     	;# 
   332  0093                     	;# 
   333  0093                     	;# 
   334  0094                     	;# 
   335  0095                     	;# 
   336  0096                     	;# 
   337  0097                     	;# 
   338  0098                     	;# 
   339  0099                     	;# 
   340  009A                     	;# 
   341  009B                     	;# 
   342  009C                     	;# 
   343  009D                     	;# 
   344  009E                     	;# 
   345  009F                     	;# 
   346  0105                     	;# 
   347  0107                     	;# 
   348  0108                     	;# 
   349  0109                     	;# 
   350  010C                     	;# 
   351  010C                     	;# 
   352  010D                     	;# 
   353  010E                     	;# 
   354  010F                     	;# 
   355  0185                     	;# 
   356  0187                     	;# 
   357  0188                     	;# 
   358  0189                     	;# 
   359  018C                     	;# 
   360  018D                     	;# 
   361  000E                     _TMR1L	set	14
   362  000F                     _TMR1H	set	15
   363  0006                     _PORTBbits	set	6
   364  0010                     _T1CON	set	16
   365  0007                     _PORTCbits	set	7
   366  0005                     _PORTAbits	set	5
   367  0080                     _TMR1ON	set	128
   368  002A                     _RA2	set	42
   369  002B                     _RA3	set	43
   370  0087                     _TRISC	set	135
   371  0086                     _TRISB	set	134
   372  0085                     _TRISA	set	133
   373  0188                     _ANSEL	set	392
   374                           
   375                           	psect	cinit
   376  07FC                     start_initialization:	
   377                           ; #config settings
   378                           
   379  07FC                     __initialization:
   380  07FC                     end_of_initialization:	
   381                           ;End of C runtime variable initialization code
   382                           
   383  07FC                     __end_of__initialization:
   384  07FC  0183               	clrf	3
   385  07FD  120A  118A  2D00   	ljmp	_main	;jump to C main() function
   386                           
   387                           	psect	cstackCOMMON
   388  0070                     __pcstackCOMMON:
   389  0070                     ?_vehiculo_adelante:
   390  0070                     ??_vehiculo_adelante:	
   391                           ; 1 bytes @ 0x0
   392                           
   393  0070                     ?_vehiculo_derecha:	
   394                           ; 1 bytes @ 0x0
   395                           
   396  0070                     ??_vehiculo_derecha:	
   397                           ; 1 bytes @ 0x0
   398                           
   399  0070                     ?_vehiculo_izquierda:	
   400                           ; 1 bytes @ 0x0
   401                           
   402  0070                     ??_vehiculo_izquierda:	
   403                           ; 1 bytes @ 0x0
   404                           
   405  0070                     ?_vehiculo_atras:	
   406                           ; 1 bytes @ 0x0
   407                           
   408  0070                     ??_vehiculo_atras:	
   409                           ; 1 bytes @ 0x0
   410                           
   411  0070                     ?_vehiculo_detener:	
   412                           ; 1 bytes @ 0x0
   413                           
   414  0070                     ??_vehiculo_detener:	
   415                           ; 1 bytes @ 0x0
   416                           
   417  0070                     ?_direccional:	
   418                           ; 1 bytes @ 0x0
   419                           
   420  0070                     ?_direccional_apagar:	
   421                           ; 1 bytes @ 0x0
   422                           
   423  0070                     ??_direccional_apagar:	
   424                           ; 1 bytes @ 0x0
   425                           
   426  0070                     ?_main:	
   427                           ; 1 bytes @ 0x0
   428                           
   429  0070                     ?___xxtofl:	
   430                           ; 1 bytes @ 0x0
   431                           
   432  0070                     direccional@op:	
   433                           ; 4 bytes @ 0x0
   434                           
   435  0070                     ___xxtofl@val:	
   436                           ; 2 bytes @ 0x0
   437                           
   438                           
   439                           ; 4 bytes @ 0x0
   440  0070                     	ds	2
   441  0072                     ??_direccional:
   442                           
   443                           ; 1 bytes @ 0x2
   444  0072                     	ds	2
   445  0074                     ??___xxtofl:
   446                           
   447                           ; 1 bytes @ 0x4
   448  0074                     	ds	4
   449  0078                     ___xxtofl@sign:
   450                           
   451                           ; 1 bytes @ 0x8
   452  0078                     	ds	1
   453  0079                     ___xxtofl@exp:
   454                           
   455                           ; 1 bytes @ 0x9
   456  0079                     	ds	1
   457  007A                     ___xxtofl@arg:
   458                           
   459                           ; 4 bytes @ 0xA
   460  007A                     	ds	4
   461                           
   462                           	psect	cstackBANK0
   463  0020                     __pcstackBANK0:
   464  0020                     ?___fldiv:
   465  0020                     ___fldiv@a:	
   466                           ; 4 bytes @ 0x0
   467                           
   468                           
   469                           ; 4 bytes @ 0x0
   470  0020                     	ds	4
   471  0024                     ___fldiv@b:
   472                           
   473                           ; 4 bytes @ 0x4
   474  0024                     	ds	4
   475  0028                     ??___fldiv:
   476                           
   477                           ; 1 bytes @ 0x8
   478  0028                     	ds	5
   479  002D                     ___fldiv@rem:
   480                           
   481                           ; 4 bytes @ 0xD
   482  002D                     	ds	4
   483  0031                     ___fldiv@sign:
   484                           
   485                           ; 1 bytes @ 0x11
   486  0031                     	ds	1
   487  0032                     ___fldiv@new_exp:
   488                           
   489                           ; 2 bytes @ 0x12
   490  0032                     	ds	2
   491  0034                     ___fldiv@grs:
   492                           
   493                           ; 4 bytes @ 0x14
   494  0034                     	ds	4
   495  0038                     ___fldiv@bexp:
   496                           
   497                           ; 1 bytes @ 0x18
   498  0038                     	ds	1
   499  0039                     ___fldiv@aexp:
   500                           
   501                           ; 1 bytes @ 0x19
   502  0039                     	ds	1
   503  003A                     ?___fltol:
   504  003A                     ___fltol@f1:	
   505                           ; 4 bytes @ 0x1A
   506                           
   507                           
   508                           ; 4 bytes @ 0x1A
   509  003A                     	ds	4
   510  003E                     ??___fltol:
   511                           
   512                           ; 1 bytes @ 0x1E
   513  003E                     	ds	5
   514  0043                     ___fltol@sign1:
   515                           
   516                           ; 1 bytes @ 0x23
   517  0043                     	ds	1
   518  0044                     ___fltol@exp1:
   519                           
   520                           ; 1 bytes @ 0x24
   521  0044                     	ds	1
   522  0045                     ??_main:
   523                           
   524                           ; 1 bytes @ 0x25
   525  0045                     	ds	3
   526  0048                     main@a:
   527                           
   528                           ; 2 bytes @ 0x28
   529  0048                     	ds	2
   530                           
   531                           	psect	maintext
   532  0500                     __pmaintext:	
   533 ;;
   534 ;;Main: autosize = 0, tempsize = 3, incstack = 0, save=0
   535 ;;
   536 ;; *************** function _main *****************
   537 ;; Defined at:
   538 ;;		line 31 in file "main.c"
   539 ;; Parameters:    Size  Location     Type
   540 ;;		None
   541 ;; Auto vars:     Size  Location     Type
   542 ;;  a               2   40[BANK0 ] int 
   543 ;;  Encoder2        2    0        unsigned int 
   544 ;;  Encoder1        2    0        unsigned int 
   545 ;;  E2_old          1    0        _Bool 
   546 ;;  E2              1    0        _Bool 
   547 ;;  E1_old          1    0        _Bool 
   548 ;;  E1              1    0        _Bool 
   549 ;; Return value:  Size  Location     Type
   550 ;;                  1    wreg      void 
   551 ;; Registers used:
   552 ;;		wreg, status,2, status,0, btemp+1, pclath, cstack
   553 ;; Tracked objects:
   554 ;;		On entry : B00/0
   555 ;;		On exit  : 0/0
   556 ;;		Unchanged: 0/0
   557 ;; Data sizes:     COMMON   BANK0   BANK1   BANK3   BANK2
   558 ;;      Params:         0       0       0       0       0
   559 ;;      Locals:         0       2       0       0       0
   560 ;;      Temps:          0       3       0       0       0
   561 ;;      Totals:         0       5       0       0       0
   562 ;;Total ram usage:        5 bytes
   563 ;; Hardware stack levels required when called: 1
   564 ;; This function calls:
   565 ;;		___fldiv
   566 ;;		___fltol
   567 ;;		___xxtofl
   568 ;;		_direccional
   569 ;;		_direccional_apagar
   570 ;;		_vehiculo_adelante
   571 ;;		_vehiculo_atras
   572 ;;		_vehiculo_derecha
   573 ;;		_vehiculo_detener
   574 ;;		_vehiculo_izquierda
   575 ;; This function is called by:
   576 ;;		Startup code after reset
   577 ;; This function uses a non-reentrant model
   578 ;;
   579                           
   580  0500                     _main:	
   581                           ;psect for function _main
   582                           
   583  0500                     l1195:	
   584                           ;incstack = 0
   585                           ; Regs used in _main: [wreg+status,2+status,0+btemp+1+pclath+cstack]
   586                           
   587                           
   588                           ;main.c: 33:     TRISA = 0b00000100;
   589  0500  3004               	movlw	4
   590  0501  1683               	bsf	3,5	;RP0=1, select bank1
   591  0502  1303               	bcf	3,6	;RP1=0, select bank1
   592  0503  0085               	movwf	5	;volatile
   593                           
   594                           ;main.c: 34:     TRISB = 0b00000011;
   595  0504  3003               	movlw	3
   596  0505  0086               	movwf	6	;volatile
   597  0506                     l1197:
   598                           
   599                           ;main.c: 35:     ANSEL = 0x00;
   600  0506  1683               	bsf	3,5	;RP0=1, select bank3
   601  0507  1703               	bsf	3,6	;RP1=1, select bank3
   602  0508  0188               	clrf	8	;volatile
   603  0509                     l1199:
   604                           
   605                           ;main.c: 36:     TRISC = 0x00;
   606  0509  1683               	bsf	3,5	;RP0=1, select bank1
   607  050A  1303               	bcf	3,6	;RP1=0, select bank1
   608  050B  0187               	clrf	7	;volatile
   609  050C                     l1201:
   610  050C                     l1203:
   611                           
   612                           ;main.c: 41:     T1CON = 0x10;
   613  050C  3010               	movlw	16
   614  050D  1283               	bcf	3,5	;RP0=0, select bank0
   615  050E  1303               	bcf	3,6	;RP1=0, select bank0
   616  050F  0090               	movwf	16	;volatile
   617  0510                     l1205:
   618                           
   619                           ;main.c: 42:     int a;;main.c: 44:     _Bool E1;;main.c: 45:     _Bool E1_old;;main.c: 
      +                          46:     _Bool E2;;main.c: 47:     _Bool E2_old;;main.c: 48:           PORTBbits.RB7 = 0;
   620  0510  1386               	bcf	6,7	;volatile
   621  0511                     l1207:
   622                           
   623                           ;main.c: 49:         vehiculo_atras();
   624  0511  120A  118A  239E  120A  118A  	fcall	_vehiculo_atras
   625  0516                     l1209:
   626                           
   627                           ;main.c: 50:         _delay((unsigned long)((1000)*(4000000/4000.0)));
   628  0516  3006               	movlw	6
   629  0517  1283               	bcf	3,5	;RP0=0, select bank0
   630  0518  1303               	bcf	3,6	;RP1=0, select bank0
   631  0519  00C7               	movwf	??_main+2
   632  051A  3013               	movlw	19
   633  051B  00C6               	movwf	??_main+1
   634  051C  30AD               	movlw	173
   635  051D  00C5               	movwf	??_main
   636  051E                     u1197:
   637  051E  0BC5               	decfsz	??_main,f
   638  051F  2D1E               	goto	u1197
   639  0520  0BC6               	decfsz	??_main+1,f
   640  0521  2D1E               	goto	u1197
   641  0522  0BC7               	decfsz	??_main+2,f
   642  0523  2D1E               	goto	u1197
   643                           
   644                           ;main.c: 51:         vehiculo_derecha();
   645  0524  120A  118A  23A5  120A  118A  	fcall	_vehiculo_derecha
   646  0529                     l1211:
   647                           
   648                           ;main.c: 52:                 direccional(1);
   649  0529  3001               	movlw	1
   650  052A  00F0               	movwf	direccional@op
   651  052B  3000               	movlw	0
   652  052C  00F1               	movwf	direccional@op+1
   653  052D  120A  118A  23BA  120A  118A  	fcall	_direccional
   654                           
   655                           ;main.c: 53:         _delay((unsigned long)((1000)*(4000000/4000.0)));
   656  0532  3006               	movlw	6
   657  0533  1283               	bcf	3,5	;RP0=0, select bank0
   658  0534  1303               	bcf	3,6	;RP1=0, select bank0
   659  0535  00C7               	movwf	??_main+2
   660  0536  3013               	movlw	19
   661  0537  00C6               	movwf	??_main+1
   662  0538  30AD               	movlw	173
   663  0539  00C5               	movwf	??_main
   664  053A                     u1207:
   665  053A  0BC5               	decfsz	??_main,f
   666  053B  2D3A               	goto	u1207
   667  053C  0BC6               	decfsz	??_main+1,f
   668  053D  2D3A               	goto	u1207
   669  053E  0BC7               	decfsz	??_main+2,f
   670  053F  2D3A               	goto	u1207
   671  0540                     l1213:
   672                           
   673                           ;main.c: 54:         vehiculo_izquierda();
   674  0540  120A  118A  23B3  120A  118A  	fcall	_vehiculo_izquierda
   675                           
   676                           ;main.c: 55:                 direccional(0);
   677  0545  3000               	movlw	0
   678  0546  00F0               	movwf	direccional@op
   679  0547  00F1               	movwf	direccional@op+1
   680  0548  120A  118A  23BA  120A  118A  	fcall	_direccional
   681  054D                     l1215:
   682                           
   683                           ;main.c: 56:         _delay((unsigned long)((1000)*(4000000/4000.0)));
   684  054D  3006               	movlw	6
   685  054E  1283               	bcf	3,5	;RP0=0, select bank0
   686  054F  1303               	bcf	3,6	;RP1=0, select bank0
   687  0550  00C7               	movwf	??_main+2
   688  0551  3013               	movlw	19
   689  0552  00C6               	movwf	??_main+1
   690  0553  30AD               	movlw	173
   691  0554  00C5               	movwf	??_main
   692  0555                     u1217:
   693  0555  0BC5               	decfsz	??_main,f
   694  0556  2D55               	goto	u1217
   695  0557  0BC6               	decfsz	??_main+1,f
   696  0558  2D55               	goto	u1217
   697  0559  0BC7               	decfsz	??_main+2,f
   698  055A  2D55               	goto	u1217
   699                           
   700                           ;main.c: 57:         vehiculo_detener();
   701  055B  120A  118A  23AC  120A  118A  	fcall	_vehiculo_detener
   702  0560                     l1217:
   703                           
   704                           ;main.c: 58:        _delay((unsigned long)((1000)*(4000000/4000.0)));
   705  0560  3006               	movlw	6
   706  0561  1283               	bcf	3,5	;RP0=0, select bank0
   707  0562  1303               	bcf	3,6	;RP1=0, select bank0
   708  0563  00C7               	movwf	??_main+2
   709  0564  3013               	movlw	19
   710  0565  00C6               	movwf	??_main+1
   711  0566  30AD               	movlw	173
   712  0567  00C5               	movwf	??_main
   713  0568                     u1227:
   714  0568  0BC5               	decfsz	??_main,f
   715  0569  2D68               	goto	u1227
   716  056A  0BC6               	decfsz	??_main+1,f
   717  056B  2D68               	goto	u1227
   718  056C  0BC7               	decfsz	??_main+2,f
   719  056D  2D68               	goto	u1227
   720  056E                     l1219:
   721                           
   722                           ;main.c: 59:         vehiculo_adelante();
   723  056E  120A  118A  2397  120A  118A  	fcall	_vehiculo_adelante
   724  0573                     l1221:
   725                           
   726                           ;main.c: 60:         direccional_apagar();
   727  0573  120A  118A  2392  120A  118A  	fcall	_direccional_apagar
   728  0578                     l1223:
   729                           
   730                           ;main.c: 63:     vehiculo_adelante();
   731  0578  120A  118A  2397  120A  118A  	fcall	_vehiculo_adelante
   732  057D                     l1225:
   733                           
   734                           ;main.c: 64:     TMR1H = 0;
   735  057D  1283               	bcf	3,5	;RP0=0, select bank0
   736  057E  1303               	bcf	3,6	;RP1=0, select bank0
   737  057F  018F               	clrf	15	;volatile
   738  0580                     l1227:
   739                           
   740                           ;main.c: 65:     TMR1L = 0;
   741  0580  018E               	clrf	14	;volatile
   742  0581                     l1229:
   743                           
   744                           ;main.c: 67:     RA3 = 1;
   745  0581  1585               	bsf	5,3	;volatile
   746                           
   747                           ;main.c: 68:     _delay((unsigned long)((10)*(4000000/4000000.0)));
   748  0582  3002               	movlw	2
   749  0583  1283               	bcf	3,5	;RP0=0, select bank0
   750  0584  1303               	bcf	3,6	;RP1=0, select bank0
   751  0585  00C5               	movwf	??_main
   752  0586                     u1237:
   753  0586  0BC5               	decfsz	??_main,f
   754  0587  2D86               	goto	u1237
   755  0588  0000               	nop
   756  0589                     l1231:
   757                           
   758                           ;main.c: 69:     RA3 = 0;
   759  0589  1283               	bcf	3,5	;RP0=0, select bank0
   760  058A  1303               	bcf	3,6	;RP1=0, select bank0
   761  058B  1185               	bcf	5,3	;volatile
   762  058C                     l57:	
   763                           ;main.c: 71:     while(!RA2);
   764                           
   765  058C  1D05               	btfss	5,2	;volatile
   766  058D  2D8F               	goto	u1141
   767  058E  2D90               	goto	u1140
   768  058F                     u1141:
   769  058F  2D8C               	goto	l57
   770  0590                     u1140:
   771  0590                     l59:
   772                           
   773                           ;main.c: 72:     TMR1ON = 1;
   774  0590  1410               	bsf	16,0	;volatile
   775  0591                     l60:	
   776                           ;main.c: 73:     while(RA2);
   777                           
   778  0591  1905               	btfsc	5,2	;volatile
   779  0592  2D94               	goto	u1151
   780  0593  2D95               	goto	u1150
   781  0594                     u1151:
   782  0594  2D91               	goto	l60
   783  0595                     u1150:
   784  0595                     l62:
   785                           
   786                           ;main.c: 74:     TMR1ON = 0;
   787  0595  1010               	bcf	16,0	;volatile
   788  0596                     l1233:
   789                           
   790                           ;main.c: 76:     a = (TMR1L | (TMR1H<<8));
   791  0596  080F               	movf	15,w	;volatile
   792  0597  00C9               	movwf	main@a+1
   793  0598  080E               	movf	14,w	;volatile
   794  0599  00C8               	movwf	main@a
   795  059A                     l1235:
   796                           
   797                           ;main.c: 77:     a = a/29.41;
   798  059A  0848               	movf	main@a,w
   799  059B  00F0               	movwf	___xxtofl@val
   800  059C  0849               	movf	main@a+1,w
   801  059D  00F1               	movwf	___xxtofl@val+1
   802  059E  3000               	movlw	0
   803  059F  1BF1               	btfsc	___xxtofl@val+1,7
   804  05A0  30FF               	movlw	255
   805  05A1  00F2               	movwf	___xxtofl@val+2
   806  05A2  00F3               	movwf	___xxtofl@val+3
   807  05A3  3001               	movlw	1
   808  05A4  120A  118A  2446  120A  118A  	fcall	___xxtofl
   809  05A9  0873               	movf	?___xxtofl+3,w
   810  05AA  1283               	bcf	3,5	;RP0=0, select bank0
   811  05AB  1303               	bcf	3,6	;RP1=0, select bank0
   812  05AC  00A7               	movwf	___fldiv@b+3
   813  05AD  0872               	movf	?___xxtofl+2,w
   814  05AE  00A6               	movwf	___fldiv@b+2
   815  05AF  0871               	movf	?___xxtofl+1,w
   816  05B0  00A5               	movwf	___fldiv@b+1
   817  05B1  0870               	movf	?___xxtofl,w
   818  05B2  00A4               	movwf	___fldiv@b
   819  05B3  3041               	movlw	65
   820  05B4  00A3               	movwf	___fldiv@a+3
   821  05B5  30EB               	movlw	235
   822  05B6  00A2               	movwf	___fldiv@a+2
   823  05B7  3047               	movlw	71
   824  05B8  00A1               	movwf	___fldiv@a+1
   825  05B9  30AE               	movlw	174
   826  05BA  00A0               	movwf	___fldiv@a
   827  05BB  120A  118A  261F  120A  118A  	fcall	___fldiv
   828  05C0  1283               	bcf	3,5	;RP0=0, select bank0
   829  05C1  1303               	bcf	3,6	;RP1=0, select bank0
   830  05C2  0823               	movf	?___fldiv+3,w
   831  05C3  00BD               	movwf	___fltol@f1+3
   832  05C4  0822               	movf	?___fldiv+2,w
   833  05C5  00BC               	movwf	___fltol@f1+2
   834  05C6  0821               	movf	?___fldiv+1,w
   835  05C7  00BB               	movwf	___fltol@f1+1
   836  05C8  0820               	movf	?___fldiv,w
   837  05C9  00BA               	movwf	___fltol@f1
   838  05CA  120A  118A  23CA  120A  118A  	fcall	___fltol
   839  05CF  1283               	bcf	3,5	;RP0=0, select bank0
   840  05D0  1303               	bcf	3,6	;RP1=0, select bank0
   841  05D1  083B               	movf	?___fltol+1,w
   842  05D2  00C9               	movwf	main@a+1
   843  05D3  083A               	movf	?___fltol,w
   844  05D4  00C8               	movwf	main@a
   845  05D5                     l1237:
   846                           
   847                           ;main.c: 78:     a = a + 1;
   848  05D5  0848               	movf	main@a,w
   849  05D6  3E01               	addlw	1
   850  05D7  00C8               	movwf	main@a
   851  05D8  0849               	movf	main@a+1,w
   852  05D9  1803               	skipnc
   853  05DA  3E01               	addlw	1
   854  05DB  3E00               	addlw	0
   855  05DC  00C9               	movwf	main@a+1
   856  05DD                     l1239:
   857                           
   858                           ;main.c: 79:     if(a>=2 && a<=400) {
   859  05DD  0849               	movf	main@a+1,w
   860  05DE  3A80               	xorlw	128
   861  05DF  00FF               	movwf	btemp+1
   862  05E0  3080               	movlw	128
   863  05E1  027F               	subwf	btemp+1,w
   864  05E2  1D03               	skipz
   865  05E3  2DE6               	goto	u1165
   866  05E4  3002               	movlw	2
   867  05E5  0248               	subwf	main@a,w
   868  05E6                     u1165:
   869  05E6  1C03               	skipc
   870  05E7  2DE9               	goto	u1161
   871  05E8  2DEA               	goto	u1160
   872  05E9                     u1161:
   873  05E9  2D78               	goto	l1223
   874  05EA                     u1160:
   875  05EA                     l1241:
   876  05EA  1283               	bcf	3,5	;RP0=0, select bank0
   877  05EB  1303               	bcf	3,6	;RP1=0, select bank0
   878  05EC  0849               	movf	main@a+1,w
   879  05ED  3A80               	xorlw	128
   880  05EE  00FF               	movwf	btemp+1
   881  05EF  3081               	movlw	129
   882  05F0  027F               	subwf	btemp+1,w
   883  05F1  1D03               	skipz
   884  05F2  2DF5               	goto	u1175
   885  05F3  3091               	movlw	145
   886  05F4  0248               	subwf	main@a,w
   887  05F5                     u1175:
   888  05F5  1803               	skipnc
   889  05F6  2DF8               	goto	u1171
   890  05F7  2DF9               	goto	u1170
   891  05F8                     u1171:
   892  05F8  2D78               	goto	l1223
   893  05F9                     u1170:
   894  05F9                     l1243:
   895                           
   896                           ;main.c: 80:          if(a < 10){
   897  05F9  1283               	bcf	3,5	;RP0=0, select bank0
   898  05FA  1303               	bcf	3,6	;RP1=0, select bank0
   899  05FB  0849               	movf	main@a+1,w
   900  05FC  3A80               	xorlw	128
   901  05FD  00FF               	movwf	btemp+1
   902  05FE  3080               	movlw	128
   903  05FF  027F               	subwf	btemp+1,w
   904  0600  1D03               	skipz
   905  0601  2E04               	goto	u1185
   906  0602  300A               	movlw	10
   907  0603  0248               	subwf	main@a,w
   908  0604                     u1185:
   909  0604  1803               	skipnc
   910  0605  2E07               	goto	u1181
   911  0606  2E08               	goto	u1180
   912  0607                     u1181:
   913  0607  2D78               	goto	l1223
   914  0608                     u1180:
   915  0608                     l1245:
   916                           
   917                           ;main.c: 81:               vehiculo_detener();
   918  0608  120A  118A  23AC  120A  118A  	fcall	_vehiculo_detener
   919  060D                     l1247:
   920                           
   921                           ;main.c: 82:               _delay((unsigned long)((1000)*(4000000/4000.0)));
   922  060D  3006               	movlw	6
   923  060E  1283               	bcf	3,5	;RP0=0, select bank0
   924  060F  1303               	bcf	3,6	;RP1=0, select bank0
   925  0610  00C7               	movwf	??_main+2
   926  0611  3013               	movlw	19
   927  0612  00C6               	movwf	??_main+1
   928  0613  30AD               	movlw	173
   929  0614  00C5               	movwf	??_main
   930  0615                     u1247:
   931  0615  0BC5               	decfsz	??_main,f
   932  0616  2E15               	goto	u1247
   933  0617  0BC6               	decfsz	??_main+1,f
   934  0618  2E15               	goto	u1247
   935  0619  0BC7               	decfsz	??_main+2,f
   936  061A  2E15               	goto	u1247
   937  061B  2D78               	goto	l1223
   938  061C  120A  118A  2800   	ljmp	start
   939  061F                     __end_of_main:
   940                           
   941                           	psect	text1
   942  03B3                     __ptext1:	
   943 ;; *************** function _vehiculo_izquierda *****************
   944 ;; Defined at:
   945 ;;		line 27 in file "./prototipos.h"
   946 ;; Parameters:    Size  Location     Type
   947 ;;		None
   948 ;; Auto vars:     Size  Location     Type
   949 ;;		None
   950 ;; Return value:  Size  Location     Type
   951 ;;                  1    wreg      void 
   952 ;; Registers used:
   953 ;;		None
   954 ;; Tracked objects:
   955 ;;		On entry : 0/0
   956 ;;		On exit  : 0/0
   957 ;;		Unchanged: 0/0
   958 ;; Data sizes:     COMMON   BANK0   BANK1   BANK3   BANK2
   959 ;;      Params:         0       0       0       0       0
   960 ;;      Locals:         0       0       0       0       0
   961 ;;      Temps:          0       0       0       0       0
   962 ;;      Totals:         0       0       0       0       0
   963 ;;Total ram usage:        0 bytes
   964 ;; Hardware stack levels used: 1
   965 ;; This function calls:
   966 ;;		Nothing
   967 ;; This function is called by:
   968 ;;		_main
   969 ;; This function uses a non-reentrant model
   970 ;;
   971                           
   972  03B3                     _vehiculo_izquierda:	
   973                           ;psect for function _vehiculo_izquierda
   974                           
   975  03B3                     l961:	
   976                           ;incstack = 0
   977                           ; Regs used in _vehiculo_izquierda: []
   978                           
   979                           
   980                           ;./prototipos.h: 28:     PORTAbits.RA7 = 0;
   981  03B3  1283               	bcf	3,5	;RP0=0, select bank0
   982  03B4  1303               	bcf	3,6	;RP1=0, select bank0
   983  03B5  1385               	bcf	5,7	;volatile
   984                           
   985                           ;./prototipos.h: 29:     PORTCbits.RC1 = 0;
   986  03B6  1087               	bcf	7,1	;volatile
   987                           
   988                           ;./prototipos.h: 31:     PORTAbits.RA6 = 1;
   989  03B7  1705               	bsf	5,6	;volatile
   990                           
   991                           ;./prototipos.h: 32:     PORTCbits.RC2 = 0;
   992  03B8  1107               	bcf	7,2	;volatile
   993  03B9                     l37:
   994  03B9  0008               	return
   995  03BA                     __end_of_vehiculo_izquierda:
   996                           
   997                           	psect	text2
   998  03AC                     __ptext2:	
   999 ;; *************** function _vehiculo_detener *****************
  1000 ;; Defined at:
  1001 ;;		line 43 in file "./prototipos.h"
  1002 ;; Parameters:    Size  Location     Type
  1003 ;;		None
  1004 ;; Auto vars:     Size  Location     Type
  1005 ;;		None
  1006 ;; Return value:  Size  Location     Type
  1007 ;;                  1    wreg      void 
  1008 ;; Registers used:
  1009 ;;		None
  1010 ;; Tracked objects:
  1011 ;;		On entry : 0/0
  1012 ;;		On exit  : 0/0
  1013 ;;		Unchanged: 0/0
  1014 ;; Data sizes:     COMMON   BANK0   BANK1   BANK3   BANK2
  1015 ;;      Params:         0       0       0       0       0
  1016 ;;      Locals:         0       0       0       0       0
  1017 ;;      Temps:          0       0       0       0       0
  1018 ;;      Totals:         0       0       0       0       0
  1019 ;;Total ram usage:        0 bytes
  1020 ;; Hardware stack levels used: 1
  1021 ;; This function calls:
  1022 ;;		Nothing
  1023 ;; This function is called by:
  1024 ;;		_main
  1025 ;; This function uses a non-reentrant model
  1026 ;;
  1027                           
  1028  03AC                     _vehiculo_detener:	
  1029                           ;psect for function _vehiculo_detener
  1030                           
  1031  03AC                     l965:	
  1032                           ;incstack = 0
  1033                           ; Regs used in _vehiculo_detener: []
  1034                           
  1035                           
  1036                           ;./prototipos.h: 44:     PORTAbits.RA7 = 0;
  1037  03AC  1283               	bcf	3,5	;RP0=0, select bank0
  1038  03AD  1303               	bcf	3,6	;RP1=0, select bank0
  1039  03AE  1385               	bcf	5,7	;volatile
  1040                           
  1041                           ;./prototipos.h: 45:     PORTCbits.RC1 = 0;
  1042  03AF  1087               	bcf	7,1	;volatile
  1043                           
  1044                           ;./prototipos.h: 47:     PORTAbits.RA6 = 0;
  1045  03B0  1305               	bcf	5,6	;volatile
  1046                           
  1047                           ;./prototipos.h: 48:     PORTCbits.RC2 = 0;
  1048  03B1  1107               	bcf	7,2	;volatile
  1049  03B2                     l43:
  1050  03B2  0008               	return
  1051  03B3                     __end_of_vehiculo_detener:
  1052                           
  1053                           	psect	text3
  1054  03A5                     __ptext3:	
  1055 ;; *************** function _vehiculo_derecha *****************
  1056 ;; Defined at:
  1057 ;;		line 19 in file "./prototipos.h"
  1058 ;; Parameters:    Size  Location     Type
  1059 ;;		None
  1060 ;; Auto vars:     Size  Location     Type
  1061 ;;		None
  1062 ;; Return value:  Size  Location     Type
  1063 ;;                  1    wreg      void 
  1064 ;; Registers used:
  1065 ;;		None
  1066 ;; Tracked objects:
  1067 ;;		On entry : 0/0
  1068 ;;		On exit  : 0/0
  1069 ;;		Unchanged: 0/0
  1070 ;; Data sizes:     COMMON   BANK0   BANK1   BANK3   BANK2
  1071 ;;      Params:         0       0       0       0       0
  1072 ;;      Locals:         0       0       0       0       0
  1073 ;;      Temps:          0       0       0       0       0
  1074 ;;      Totals:         0       0       0       0       0
  1075 ;;Total ram usage:        0 bytes
  1076 ;; Hardware stack levels used: 1
  1077 ;; This function calls:
  1078 ;;		Nothing
  1079 ;; This function is called by:
  1080 ;;		_main
  1081 ;; This function uses a non-reentrant model
  1082 ;;
  1083                           
  1084  03A5                     _vehiculo_derecha:	
  1085                           ;psect for function _vehiculo_derecha
  1086                           
  1087  03A5                     l959:	
  1088                           ;incstack = 0
  1089                           ; Regs used in _vehiculo_derecha: []
  1090                           
  1091                           
  1092                           ;./prototipos.h: 20:     PORTAbits.RA7 = 1;
  1093  03A5  1283               	bcf	3,5	;RP0=0, select bank0
  1094  03A6  1303               	bcf	3,6	;RP1=0, select bank0
  1095  03A7  1785               	bsf	5,7	;volatile
  1096                           
  1097                           ;./prototipos.h: 21:     PORTCbits.RC1 = 0;
  1098  03A8  1087               	bcf	7,1	;volatile
  1099                           
  1100                           ;./prototipos.h: 23:     PORTAbits.RA6 = 0;
  1101  03A9  1305               	bcf	5,6	;volatile
  1102                           
  1103                           ;./prototipos.h: 24:     PORTCbits.RC2 = 0;
  1104  03AA  1107               	bcf	7,2	;volatile
  1105  03AB                     l34:
  1106  03AB  0008               	return
  1107  03AC                     __end_of_vehiculo_derecha:
  1108                           
  1109                           	psect	text4
  1110  039E                     __ptext4:	
  1111 ;; *************** function _vehiculo_atras *****************
  1112 ;; Defined at:
  1113 ;;		line 35 in file "./prototipos.h"
  1114 ;; Parameters:    Size  Location     Type
  1115 ;;		None
  1116 ;; Auto vars:     Size  Location     Type
  1117 ;;		None
  1118 ;; Return value:  Size  Location     Type
  1119 ;;                  1    wreg      void 
  1120 ;; Registers used:
  1121 ;;		None
  1122 ;; Tracked objects:
  1123 ;;		On entry : 0/0
  1124 ;;		On exit  : 0/0
  1125 ;;		Unchanged: 0/0
  1126 ;; Data sizes:     COMMON   BANK0   BANK1   BANK3   BANK2
  1127 ;;      Params:         0       0       0       0       0
  1128 ;;      Locals:         0       0       0       0       0
  1129 ;;      Temps:          0       0       0       0       0
  1130 ;;      Totals:         0       0       0       0       0
  1131 ;;Total ram usage:        0 bytes
  1132 ;; Hardware stack levels used: 1
  1133 ;; This function calls:
  1134 ;;		Nothing
  1135 ;; This function is called by:
  1136 ;;		_main
  1137 ;; This function uses a non-reentrant model
  1138 ;;
  1139                           
  1140  039E                     _vehiculo_atras:	
  1141                           ;psect for function _vehiculo_atras
  1142                           
  1143  039E                     l963:	
  1144                           ;incstack = 0
  1145                           ; Regs used in _vehiculo_atras: []
  1146                           
  1147                           
  1148                           ;./prototipos.h: 36:     PORTAbits.RA7 = 0;
  1149  039E  1283               	bcf	3,5	;RP0=0, select bank0
  1150  039F  1303               	bcf	3,6	;RP1=0, select bank0
  1151  03A0  1385               	bcf	5,7	;volatile
  1152                           
  1153                           ;./prototipos.h: 37:     PORTCbits.RC1 = 1;
  1154  03A1  1487               	bsf	7,1	;volatile
  1155                           
  1156                           ;./prototipos.h: 39:     PORTAbits.RA6 = 0;
  1157  03A2  1305               	bcf	5,6	;volatile
  1158                           
  1159                           ;./prototipos.h: 40:     PORTCbits.RC2 = 1;
  1160  03A3  1507               	bsf	7,2	;volatile
  1161  03A4                     l40:
  1162  03A4  0008               	return
  1163  03A5                     __end_of_vehiculo_atras:
  1164                           
  1165                           	psect	text5
  1166  0397                     __ptext5:	
  1167 ;; *************** function _vehiculo_adelante *****************
  1168 ;; Defined at:
  1169 ;;		line 11 in file "./prototipos.h"
  1170 ;; Parameters:    Size  Location     Type
  1171 ;;		None
  1172 ;; Auto vars:     Size  Location     Type
  1173 ;;		None
  1174 ;; Return value:  Size  Location     Type
  1175 ;;                  1    wreg      void 
  1176 ;; Registers used:
  1177 ;;		None
  1178 ;; Tracked objects:
  1179 ;;		On entry : 0/0
  1180 ;;		On exit  : 0/0
  1181 ;;		Unchanged: 0/0
  1182 ;; Data sizes:     COMMON   BANK0   BANK1   BANK3   BANK2
  1183 ;;      Params:         0       0       0       0       0
  1184 ;;      Locals:         0       0       0       0       0
  1185 ;;      Temps:          0       0       0       0       0
  1186 ;;      Totals:         0       0       0       0       0
  1187 ;;Total ram usage:        0 bytes
  1188 ;; Hardware stack levels used: 1
  1189 ;; This function calls:
  1190 ;;		Nothing
  1191 ;; This function is called by:
  1192 ;;		_main
  1193 ;; This function uses a non-reentrant model
  1194 ;;
  1195                           
  1196  0397                     _vehiculo_adelante:	
  1197                           ;psect for function _vehiculo_adelante
  1198                           
  1199  0397                     l957:	
  1200                           ;incstack = 0
  1201                           ; Regs used in _vehiculo_adelante: []
  1202                           
  1203                           
  1204                           ;./prototipos.h: 12:     PORTAbits.RA7 = 1;
  1205  0397  1283               	bcf	3,5	;RP0=0, select bank0
  1206  0398  1303               	bcf	3,6	;RP1=0, select bank0
  1207  0399  1785               	bsf	5,7	;volatile
  1208                           
  1209                           ;./prototipos.h: 13:     PORTCbits.RC1 = 0;
  1210  039A  1087               	bcf	7,1	;volatile
  1211                           
  1212                           ;./prototipos.h: 15:     PORTAbits.RA6 = 1;
  1213  039B  1705               	bsf	5,6	;volatile
  1214                           
  1215                           ;./prototipos.h: 16:     PORTCbits.RC2 = 0;
  1216  039C  1107               	bcf	7,2	;volatile
  1217  039D                     l31:
  1218  039D  0008               	return
  1219  039E                     __end_of_vehiculo_adelante:
  1220                           
  1221                           	psect	text6
  1222  0392                     __ptext6:	
  1223 ;; *************** function _direccional_apagar *****************
  1224 ;; Defined at:
  1225 ;;		line 62 in file "./prototipos.h"
  1226 ;; Parameters:    Size  Location     Type
  1227 ;;		None
  1228 ;; Auto vars:     Size  Location     Type
  1229 ;;		None
  1230 ;; Return value:  Size  Location     Type
  1231 ;;                  1    wreg      void 
  1232 ;; Registers used:
  1233 ;;		None
  1234 ;; Tracked objects:
  1235 ;;		On entry : 0/0
  1236 ;;		On exit  : 0/0
  1237 ;;		Unchanged: 0/0
  1238 ;; Data sizes:     COMMON   BANK0   BANK1   BANK3   BANK2
  1239 ;;      Params:         0       0       0       0       0
  1240 ;;      Locals:         0       0       0       0       0
  1241 ;;      Temps:          0       0       0       0       0
  1242 ;;      Totals:         0       0       0       0       0
  1243 ;;Total ram usage:        0 bytes
  1244 ;; Hardware stack levels used: 1
  1245 ;; This function calls:
  1246 ;;		Nothing
  1247 ;; This function is called by:
  1248 ;;		_main
  1249 ;; This function uses a non-reentrant model
  1250 ;;
  1251                           
  1252  0392                     _direccional_apagar:	
  1253                           ;psect for function _direccional_apagar
  1254                           
  1255  0392                     l971:	
  1256                           ;incstack = 0
  1257                           ; Regs used in _direccional_apagar: []
  1258                           
  1259                           
  1260                           ;./prototipos.h: 63:      PORTAbits.RA0 = 0;
  1261  0392  1283               	bcf	3,5	;RP0=0, select bank0
  1262  0393  1303               	bcf	3,6	;RP1=0, select bank0
  1263  0394  1005               	bcf	5,0	;volatile
  1264                           
  1265                           ;./prototipos.h: 64:      PORTAbits.RA1 = 0;
  1266  0395  1085               	bcf	5,1	;volatile
  1267  0396                     l51:
  1268  0396  0008               	return
  1269  0397                     __end_of_direccional_apagar:
  1270                           
  1271                           	psect	text7
  1272  03BA                     __ptext7:	
  1273 ;; *************** function _direccional *****************
  1274 ;; Defined at:
  1275 ;;		line 51 in file "./prototipos.h"
  1276 ;; Parameters:    Size  Location     Type
  1277 ;;  op              2    0[COMMON] unsigned int 
  1278 ;; Auto vars:     Size  Location     Type
  1279 ;;		None
  1280 ;; Return value:  Size  Location     Type
  1281 ;;                  1    wreg      void 
  1282 ;; Registers used:
  1283 ;;		wreg, status,2, status,0
  1284 ;; Tracked objects:
  1285 ;;		On entry : 0/0
  1286 ;;		On exit  : 0/0
  1287 ;;		Unchanged: 0/0
  1288 ;; Data sizes:     COMMON   BANK0   BANK1   BANK3   BANK2
  1289 ;;      Params:         2       0       0       0       0
  1290 ;;      Locals:         0       0       0       0       0
  1291 ;;      Temps:          0       0       0       0       0
  1292 ;;      Totals:         2       0       0       0       0
  1293 ;;Total ram usage:        2 bytes
  1294 ;; Hardware stack levels used: 1
  1295 ;; This function calls:
  1296 ;;		Nothing
  1297 ;; This function is called by:
  1298 ;;		_main
  1299 ;; This function uses a non-reentrant model
  1300 ;;
  1301                           
  1302  03BA                     _direccional:	
  1303                           ;psect for function _direccional
  1304                           
  1305  03BA                     l967:	
  1306                           ;incstack = 0
  1307                           ; Regs used in _direccional: [wreg+status,2+status,0]
  1308                           
  1309                           
  1310                           ;./prototipos.h: 52:     if (op == 1){
  1311  03BA  0370               	decf	direccional@op,w
  1312  03BB  0471               	iorwf	direccional@op+1,w
  1313  03BC  1D03               	btfss	3,2
  1314  03BD  2BBF               	goto	u601
  1315  03BE  2BC0               	goto	u600
  1316  03BF                     u601:
  1317  03BF  2BC5               	goto	l46
  1318  03C0                     u600:
  1319  03C0                     l969:
  1320                           
  1321                           ;./prototipos.h: 53:         PORTAbits.RA0 = 1;
  1322  03C0  1283               	bcf	3,5	;RP0=0, select bank0
  1323  03C1  1303               	bcf	3,6	;RP1=0, select bank0
  1324  03C2  1405               	bsf	5,0	;volatile
  1325                           
  1326                           ;./prototipos.h: 54:         PORTAbits.RA1 = 0;
  1327  03C3  1085               	bcf	5,1	;volatile
  1328                           
  1329                           ;./prototipos.h: 55:     }
  1330  03C4  2BC9               	goto	l48
  1331  03C5                     l46:	
  1332                           ;./prototipos.h: 56:     else{
  1333                           
  1334                           
  1335                           ;./prototipos.h: 57:         PORTAbits.RA0 = 0;
  1336  03C5  1283               	bcf	3,5	;RP0=0, select bank0
  1337  03C6  1303               	bcf	3,6	;RP1=0, select bank0
  1338  03C7  1005               	bcf	5,0	;volatile
  1339                           
  1340                           ;./prototipos.h: 58:         PORTAbits.RA1 = 1;
  1341  03C8  1485               	bsf	5,1	;volatile
  1342  03C9                     l48:
  1343  03C9  0008               	return
  1344  03CA                     __end_of_direccional:
  1345                           
  1346                           	psect	text8
  1347  0446                     __ptext8:	
  1348 ;; *************** function ___xxtofl *****************
  1349 ;; Defined at:
  1350 ;;		line 10 in file "C:\Program Files\Microchip\xc8\v2.36\pic\sources\c90\common\xxtofl.c"
  1351 ;; Parameters:    Size  Location     Type
  1352 ;;  sign            1    wreg     unsigned char 
  1353 ;;  val             4    0[COMMON] long 
  1354 ;; Auto vars:     Size  Location     Type
  1355 ;;  sign            1    8[COMMON] unsigned char 
  1356 ;;  arg             4   10[COMMON] unsigned long 
  1357 ;;  exp             1    9[COMMON] unsigned char 
  1358 ;; Return value:  Size  Location     Type
  1359 ;;                  4    0[COMMON] unsigned char 
  1360 ;; Registers used:
  1361 ;;		wreg, status,2, status,0
  1362 ;; Tracked objects:
  1363 ;;		On entry : 0/0
  1364 ;;		On exit  : 0/0
  1365 ;;		Unchanged: 0/0
  1366 ;; Data sizes:     COMMON   BANK0   BANK1   BANK3   BANK2
  1367 ;;      Params:         4       0       0       0       0
  1368 ;;      Locals:         6       0       0       0       0
  1369 ;;      Temps:          4       0       0       0       0
  1370 ;;      Totals:        14       0       0       0       0
  1371 ;;Total ram usage:       14 bytes
  1372 ;; Hardware stack levels used: 1
  1373 ;; This function calls:
  1374 ;;		Nothing
  1375 ;; This function is called by:
  1376 ;;		_main
  1377 ;; This function uses a non-reentrant model
  1378 ;;
  1379                           
  1380  0446                     ___xxtofl:	
  1381                           ;psect for function ___xxtofl
  1382                           
  1383                           
  1384                           ;incstack = 0
  1385                           ; Regs used in ___xxtofl: [wreg+status,2+status,0]
  1386                           ;___xxtofl@sign stored from wreg
  1387  0446  00F8               	movwf	___xxtofl@sign
  1388  0447                     l1151:
  1389  0447  0878               	movf	___xxtofl@sign,w
  1390  0448  1903               	btfsc	3,2
  1391  0449  2C4B               	goto	u1001
  1392  044A  2C4C               	goto	u1000
  1393  044B                     u1001:
  1394  044B  2C60               	goto	l1157
  1395  044C                     u1000:
  1396  044C                     l1153:
  1397  044C  1FF3               	btfss	___xxtofl@val+3,7
  1398  044D  2C4F               	goto	u1011
  1399  044E  2C50               	goto	u1010
  1400  044F                     u1011:
  1401  044F  2C60               	goto	l1157
  1402  0450                     u1010:
  1403  0450                     l1155:
  1404  0450  0970               	comf	___xxtofl@val,w
  1405  0451  00FA               	movwf	___xxtofl@arg
  1406  0452  0971               	comf	___xxtofl@val+1,w
  1407  0453  00FB               	movwf	___xxtofl@arg+1
  1408  0454  0972               	comf	___xxtofl@val+2,w
  1409  0455  00FC               	movwf	___xxtofl@arg+2
  1410  0456  0973               	comf	___xxtofl@val+3,w
  1411  0457  00FD               	movwf	___xxtofl@arg+3
  1412  0458  0AFA               	incf	___xxtofl@arg,f
  1413  0459  1903               	skipnz
  1414  045A  0AFB               	incf	___xxtofl@arg+1,f
  1415  045B  1903               	skipnz
  1416  045C  0AFC               	incf	___xxtofl@arg+2,f
  1417  045D  1903               	skipnz
  1418  045E  0AFD               	incf	___xxtofl@arg+3,f
  1419  045F  2C68               	goto	l592
  1420  0460                     l1157:
  1421  0460  0873               	movf	___xxtofl@val+3,w
  1422  0461  00FD               	movwf	___xxtofl@arg+3
  1423  0462  0872               	movf	___xxtofl@val+2,w
  1424  0463  00FC               	movwf	___xxtofl@arg+2
  1425  0464  0871               	movf	___xxtofl@val+1,w
  1426  0465  00FB               	movwf	___xxtofl@arg+1
  1427  0466  0870               	movf	___xxtofl@val,w
  1428  0467  00FA               	movwf	___xxtofl@arg
  1429  0468                     l592:
  1430  0468  0873               	movf	___xxtofl@val+3,w
  1431  0469  0472               	iorwf	___xxtofl@val+2,w
  1432  046A  0471               	iorwf	___xxtofl@val+1,w
  1433  046B  0470               	iorwf	___xxtofl@val,w
  1434  046C  1D03               	skipz
  1435  046D  2C6F               	goto	u1021
  1436  046E  2C70               	goto	u1020
  1437  046F                     u1021:
  1438  046F  2C79               	goto	l1163
  1439  0470                     u1020:
  1440  0470                     l1159:
  1441  0470  3000               	movlw	0
  1442  0471  00F3               	movwf	?___xxtofl+3
  1443  0472  3000               	movlw	0
  1444  0473  00F2               	movwf	?___xxtofl+2
  1445  0474  3000               	movlw	0
  1446  0475  00F1               	movwf	?___xxtofl+1
  1447  0476  3000               	movlw	0
  1448  0477  00F0               	movwf	?___xxtofl
  1449  0478  2CFF               	goto	l594
  1450  0479                     l1163:
  1451  0479  3096               	movlw	150
  1452  047A  00F4               	movwf	??___xxtofl
  1453  047B  0874               	movf	??___xxtofl,w
  1454  047C  00F9               	movwf	___xxtofl@exp
  1455  047D  2C8B               	goto	l1167
  1456  047E                     l1165:
  1457  047E  3001               	movlw	1
  1458  047F  00F4               	movwf	??___xxtofl
  1459  0480  0874               	movf	??___xxtofl,w
  1460  0481  07F9               	addwf	___xxtofl@exp,f
  1461  0482  3001               	movlw	1
  1462  0483                     u1035:
  1463  0483  1003               	clrc
  1464  0484  0CFD               	rrf	___xxtofl@arg+3,f
  1465  0485  0CFC               	rrf	___xxtofl@arg+2,f
  1466  0486  0CFB               	rrf	___xxtofl@arg+1,f
  1467  0487  0CFA               	rrf	___xxtofl@arg,f
  1468  0488  3EFF               	addlw	-1
  1469  0489  1D03               	skipz
  1470  048A  2C83               	goto	u1035
  1471  048B                     l1167:
  1472  048B  30FE               	movlw	254
  1473  048C  057D               	andwf	___xxtofl@arg+3,w
  1474  048D  1D03               	btfss	3,2
  1475  048E  2C90               	goto	u1041
  1476  048F  2C91               	goto	u1040
  1477  0490                     u1041:
  1478  0490  2C7E               	goto	l1165
  1479  0491                     u1040:
  1480  0491  2CAD               	goto	l598
  1481  0492                     l1169:
  1482  0492  3001               	movlw	1
  1483  0493  00F4               	movwf	??___xxtofl
  1484  0494  0874               	movf	??___xxtofl,w
  1485  0495  07F9               	addwf	___xxtofl@exp,f
  1486  0496                     l1171:
  1487  0496  3001               	movlw	1
  1488  0497  07FA               	addwf	___xxtofl@arg,f
  1489  0498  3000               	movlw	0
  1490  0499  1803               	skipnc
  1491  049A  3001               	movlw	1
  1492  049B  07FB               	addwf	___xxtofl@arg+1,f
  1493  049C  3000               	movlw	0
  1494  049D  1803               	skipnc
  1495  049E  3001               	movlw	1
  1496  049F  07FC               	addwf	___xxtofl@arg+2,f
  1497  04A0  3000               	movlw	0
  1498  04A1  1803               	skipnc
  1499  04A2  3001               	movlw	1
  1500  04A3  07FD               	addwf	___xxtofl@arg+3,f
  1501  04A4                     l1173:
  1502  04A4  3001               	movlw	1
  1503  04A5                     u1055:
  1504  04A5  1003               	clrc
  1505  04A6  0CFD               	rrf	___xxtofl@arg+3,f
  1506  04A7  0CFC               	rrf	___xxtofl@arg+2,f
  1507  04A8  0CFB               	rrf	___xxtofl@arg+1,f
  1508  04A9  0CFA               	rrf	___xxtofl@arg,f
  1509  04AA  3EFF               	addlw	-1
  1510  04AB  1D03               	skipz
  1511  04AC  2CA5               	goto	u1055
  1512  04AD                     l598:
  1513  04AD  30FF               	movlw	255
  1514  04AE  057D               	andwf	___xxtofl@arg+3,w
  1515  04AF  1D03               	btfss	3,2
  1516  04B0  2CB2               	goto	u1061
  1517  04B1  2CB3               	goto	u1060
  1518  04B2                     u1061:
  1519  04B2  2C92               	goto	l1169
  1520  04B3                     u1060:
  1521  04B3  2CBF               	goto	l1177
  1522  04B4                     l1175:
  1523  04B4  3001               	movlw	1
  1524  04B5  02F9               	subwf	___xxtofl@exp,f
  1525  04B6  3001               	movlw	1
  1526  04B7  00F4               	movwf	??___xxtofl
  1527  04B8                     u1075:
  1528  04B8  1003               	clrc
  1529  04B9  0DFA               	rlf	___xxtofl@arg,f
  1530  04BA  0DFB               	rlf	___xxtofl@arg+1,f
  1531  04BB  0DFC               	rlf	___xxtofl@arg+2,f
  1532  04BC  0DFD               	rlf	___xxtofl@arg+3,f
  1533  04BD  0BF4               	decfsz	??___xxtofl,f
  1534  04BE  2CB8               	goto	u1075
  1535  04BF                     l1177:
  1536  04BF  1BFC               	btfsc	___xxtofl@arg+2,7
  1537  04C0  2CC2               	goto	u1081
  1538  04C1  2CC3               	goto	u1080
  1539  04C2                     u1081:
  1540  04C2  2CC9               	goto	l605
  1541  04C3                     u1080:
  1542  04C3                     l1179:
  1543  04C3  3002               	movlw	2
  1544  04C4  0279               	subwf	___xxtofl@exp,w
  1545  04C5  1803               	skipnc
  1546  04C6  2CC8               	goto	u1091
  1547  04C7  2CC9               	goto	u1090
  1548  04C8                     u1091:
  1549  04C8  2CB4               	goto	l1175
  1550  04C9                     u1090:
  1551  04C9                     l605:
  1552  04C9  1879               	btfsc	___xxtofl@exp,0
  1553  04CA  2CCC               	goto	u1101
  1554  04CB  2CCD               	goto	u1100
  1555  04CC                     u1101:
  1556  04CC  2CD5               	goto	l606
  1557  04CD                     u1100:
  1558  04CD                     l1181:
  1559  04CD  30FF               	movlw	255
  1560  04CE  05FA               	andwf	___xxtofl@arg,f
  1561  04CF  30FF               	movlw	255
  1562  04D0  05FB               	andwf	___xxtofl@arg+1,f
  1563  04D1  307F               	movlw	127
  1564  04D2  05FC               	andwf	___xxtofl@arg+2,f
  1565  04D3  30FF               	movlw	255
  1566  04D4  05FD               	andwf	___xxtofl@arg+3,f
  1567  04D5                     l606:
  1568  04D5  1003               	clrc
  1569  04D6  0CF9               	rrf	___xxtofl@exp,f
  1570  04D7                     l1183:
  1571  04D7  0879               	movf	___xxtofl@exp,w
  1572  04D8  00F4               	movwf	??___xxtofl
  1573  04D9  01F5               	clrf	??___xxtofl+1
  1574  04DA  01F6               	clrf	??___xxtofl+2
  1575  04DB  01F7               	clrf	??___xxtofl+3
  1576  04DC  3018               	movlw	24
  1577  04DD                     u1115:
  1578  04DD  1003               	clrc
  1579  04DE  0DF4               	rlf	??___xxtofl,f
  1580  04DF  0DF5               	rlf	??___xxtofl+1,f
  1581  04E0  0DF6               	rlf	??___xxtofl+2,f
  1582  04E1  0DF7               	rlf	??___xxtofl+3,f
  1583  04E2                     u1110:
  1584  04E2  3EFF               	addlw	-1
  1585  04E3  1D03               	skipz
  1586  04E4  2CDD               	goto	u1115
  1587  04E5  0874               	movf	??___xxtofl,w
  1588  04E6  04FA               	iorwf	___xxtofl@arg,f
  1589  04E7  0875               	movf	??___xxtofl+1,w
  1590  04E8  04FB               	iorwf	___xxtofl@arg+1,f
  1591  04E9  0876               	movf	??___xxtofl+2,w
  1592  04EA  04FC               	iorwf	___xxtofl@arg+2,f
  1593  04EB  0877               	movf	??___xxtofl+3,w
  1594  04EC  04FD               	iorwf	___xxtofl@arg+3,f
  1595  04ED                     l1185:
  1596  04ED  0878               	movf	___xxtofl@sign,w
  1597  04EE  1903               	btfsc	3,2
  1598  04EF  2CF1               	goto	u1121
  1599  04F0  2CF2               	goto	u1120
  1600  04F1                     u1121:
  1601  04F1  2CF7               	goto	l1191
  1602  04F2                     u1120:
  1603  04F2                     l1187:
  1604  04F2  1FF3               	btfss	___xxtofl@val+3,7
  1605  04F3  2CF5               	goto	u1131
  1606  04F4  2CF6               	goto	u1130
  1607  04F5                     u1131:
  1608  04F5  2CF7               	goto	l1191
  1609  04F6                     u1130:
  1610  04F6                     l1189:
  1611  04F6  17FD               	bsf	___xxtofl@arg+3,7
  1612  04F7                     l1191:
  1613  04F7  087D               	movf	___xxtofl@arg+3,w
  1614  04F8  00F3               	movwf	?___xxtofl+3
  1615  04F9  087C               	movf	___xxtofl@arg+2,w
  1616  04FA  00F2               	movwf	?___xxtofl+2
  1617  04FB  087B               	movf	___xxtofl@arg+1,w
  1618  04FC  00F1               	movwf	?___xxtofl+1
  1619  04FD  087A               	movf	___xxtofl@arg,w
  1620  04FE  00F0               	movwf	?___xxtofl
  1621  04FF                     l594:
  1622  04FF  0008               	return
  1623  0500                     __end_of___xxtofl:
  1624                           
  1625                           	psect	text9
  1626  03CA                     __ptext9:	
  1627 ;; *************** function ___fltol *****************
  1628 ;; Defined at:
  1629 ;;		line 43 in file "C:\Program Files\Microchip\xc8\v2.36\pic\sources\c90\common\fltol.c"
  1630 ;; Parameters:    Size  Location     Type
  1631 ;;  f1              4   26[BANK0 ] unsigned char 
  1632 ;; Auto vars:     Size  Location     Type
  1633 ;;  exp1            1   36[BANK0 ] unsigned char 
  1634 ;;  sign1           1   35[BANK0 ] unsigned char 
  1635 ;; Return value:  Size  Location     Type
  1636 ;;                  4   26[BANK0 ] long 
  1637 ;; Registers used:
  1638 ;;		wreg, status,2, status,0
  1639 ;; Tracked objects:
  1640 ;;		On entry : 0/0
  1641 ;;		On exit  : 0/0
  1642 ;;		Unchanged: 0/0
  1643 ;; Data sizes:     COMMON   BANK0   BANK1   BANK3   BANK2
  1644 ;;      Params:         0       4       0       0       0
  1645 ;;      Locals:         0       2       0       0       0
  1646 ;;      Temps:          0       5       0       0       0
  1647 ;;      Totals:         0      11       0       0       0
  1648 ;;Total ram usage:       11 bytes
  1649 ;; Hardware stack levels used: 1
  1650 ;; This function calls:
  1651 ;;		Nothing
  1652 ;; This function is called by:
  1653 ;;		_main
  1654 ;; This function uses a non-reentrant model
  1655 ;;
  1656                           
  1657  03CA                     ___fltol:	
  1658                           ;psect for function ___fltol
  1659                           
  1660  03CA                     l973:	
  1661                           ;incstack = 0
  1662                           ; Regs used in ___fltol: [wreg+status,2+status,0]
  1663                           
  1664  03CA  1003               	clrc
  1665  03CB  1283               	bcf	3,5	;RP0=0, select bank0
  1666  03CC  1303               	bcf	3,6	;RP1=0, select bank0
  1667  03CD  0D3C               	rlf	___fltol@f1+2,w
  1668  03CE  0D3D               	rlf	___fltol@f1+3,w
  1669  03CF  00BE               	movwf	??___fltol
  1670  03D0  083E               	movf	??___fltol,w
  1671  03D1  00C4               	movwf	___fltol@exp1
  1672  03D2  0844               	movf	___fltol@exp1,w
  1673  03D3  1D03               	btfss	3,2
  1674  03D4  2BD6               	goto	u611
  1675  03D5  2BD7               	goto	u610
  1676  03D6                     u611:
  1677  03D6  2BE0               	goto	l979
  1678  03D7                     u610:
  1679  03D7                     l975:
  1680  03D7  3000               	movlw	0
  1681  03D8  00BD               	movwf	?___fltol+3
  1682  03D9  3000               	movlw	0
  1683  03DA  00BC               	movwf	?___fltol+2
  1684  03DB  3000               	movlw	0
  1685  03DC  00BB               	movwf	?___fltol+1
  1686  03DD  3000               	movlw	0
  1687  03DE  00BA               	movwf	?___fltol
  1688  03DF  2C45               	goto	l345
  1689  03E0                     l979:
  1690  03E0  083A               	movf	___fltol@f1,w
  1691  03E1  00BE               	movwf	??___fltol
  1692  03E2  083B               	movf	___fltol@f1+1,w
  1693  03E3  00BF               	movwf	??___fltol+1
  1694  03E4  083C               	movf	___fltol@f1+2,w
  1695  03E5  00C0               	movwf	??___fltol+2
  1696  03E6  083D               	movf	___fltol@f1+3,w
  1697  03E7  00C1               	movwf	??___fltol+3
  1698  03E8  301F               	movlw	31
  1699  03E9                     u625:
  1700  03E9  1003               	clrc
  1701  03EA  0CC1               	rrf	??___fltol+3,f
  1702  03EB  0CC0               	rrf	??___fltol+2,f
  1703  03EC  0CBF               	rrf	??___fltol+1,f
  1704  03ED  0CBE               	rrf	??___fltol,f
  1705  03EE                     u620:
  1706  03EE  3EFF               	addlw	-1
  1707  03EF  1D03               	skipz
  1708  03F0  2BE9               	goto	u625
  1709  03F1  083E               	movf	??___fltol,w
  1710  03F2  00C2               	movwf	??___fltol+4
  1711  03F3  0842               	movf	??___fltol+4,w
  1712  03F4  00C3               	movwf	___fltol@sign1
  1713  03F5                     l981:
  1714  03F5  17BC               	bsf	___fltol@f1+2,7
  1715  03F6                     l983:
  1716  03F6  30FF               	movlw	255
  1717  03F7  05BA               	andwf	___fltol@f1,f
  1718  03F8  30FF               	movlw	255
  1719  03F9  05BB               	andwf	___fltol@f1+1,f
  1720  03FA  30FF               	movlw	255
  1721  03FB  05BC               	andwf	___fltol@f1+2,f
  1722  03FC  3000               	movlw	0
  1723  03FD  05BD               	andwf	___fltol@f1+3,f
  1724  03FE                     l985:
  1725  03FE  3096               	movlw	150
  1726  03FF  02C4               	subwf	___fltol@exp1,f
  1727  0400                     l987:
  1728  0400  1FC4               	btfss	___fltol@exp1,7
  1729  0401  2C03               	goto	u631
  1730  0402  2C04               	goto	u630
  1731  0403                     u631:
  1732  0403  2C1E               	goto	l997
  1733  0404                     u630:
  1734  0404                     l989:
  1735  0404  0844               	movf	___fltol@exp1,w
  1736  0405  3A80               	xorlw	128
  1737  0406  3E97               	addlw	151
  1738  0407  1803               	skipnc
  1739  0408  2C0A               	goto	u641
  1740  0409  2C0B               	goto	u640
  1741  040A                     u641:
  1742  040A  2C0C               	goto	l995
  1743  040B                     u640:
  1744  040B  2BD7               	goto	l975
  1745  040C                     l995:
  1746  040C  3001               	movlw	1
  1747  040D                     u655:
  1748  040D  1003               	clrc
  1749  040E  0CBD               	rrf	___fltol@f1+3,f
  1750  040F  0CBC               	rrf	___fltol@f1+2,f
  1751  0410  0CBB               	rrf	___fltol@f1+1,f
  1752  0411  0CBA               	rrf	___fltol@f1,f
  1753  0412  3EFF               	addlw	-1
  1754  0413  1D03               	skipz
  1755  0414  2C0D               	goto	u655
  1756  0415  3001               	movlw	1
  1757  0416  00BE               	movwf	??___fltol
  1758  0417  083E               	movf	??___fltol,w
  1759  0418  07C4               	addwf	___fltol@exp1,f
  1760  0419  1D03               	btfss	3,2
  1761  041A  2C1C               	goto	u661
  1762  041B  2C1D               	goto	u660
  1763  041C                     u661:
  1764  041C  2C0C               	goto	l995
  1765  041D                     u660:
  1766  041D  2C35               	goto	l1005
  1767  041E                     l997:
  1768  041E  3020               	movlw	32
  1769  041F  0244               	subwf	___fltol@exp1,w
  1770  0420  1C03               	skipc
  1771  0421  2C23               	goto	u671
  1772  0422  2C24               	goto	u670
  1773  0423                     u671:
  1774  0423  2C30               	goto	l352
  1775  0424                     u670:
  1776  0424  2BD7               	goto	l975
  1777  0425                     l1003:
  1778  0425  3001               	movlw	1
  1779  0426  00BE               	movwf	??___fltol
  1780  0427                     u685:
  1781  0427  1003               	clrc
  1782  0428  0DBA               	rlf	___fltol@f1,f
  1783  0429  0DBB               	rlf	___fltol@f1+1,f
  1784  042A  0DBC               	rlf	___fltol@f1+2,f
  1785  042B  0DBD               	rlf	___fltol@f1+3,f
  1786  042C  0BBE               	decfsz	??___fltol,f
  1787  042D  2C27               	goto	u685
  1788  042E  3001               	movlw	1
  1789  042F  02C4               	subwf	___fltol@exp1,f
  1790  0430                     l352:
  1791  0430  0844               	movf	___fltol@exp1,w
  1792  0431  1D03               	btfss	3,2
  1793  0432  2C34               	goto	u691
  1794  0433  2C35               	goto	u690
  1795  0434                     u691:
  1796  0434  2C25               	goto	l1003
  1797  0435                     u690:
  1798  0435                     l1005:
  1799  0435  0843               	movf	___fltol@sign1,w
  1800  0436  1903               	btfsc	3,2
  1801  0437  2C39               	goto	u701
  1802  0438  2C3A               	goto	u700
  1803  0439                     u701:
  1804  0439  2C45               	goto	l355
  1805  043A                     u700:
  1806  043A                     l1007:
  1807  043A  09BA               	comf	___fltol@f1,f
  1808  043B  09BB               	comf	___fltol@f1+1,f
  1809  043C  09BC               	comf	___fltol@f1+2,f
  1810  043D  09BD               	comf	___fltol@f1+3,f
  1811  043E  0ABA               	incf	___fltol@f1,f
  1812  043F  1903               	skipnz
  1813  0440  0ABB               	incf	___fltol@f1+1,f
  1814  0441  1903               	skipnz
  1815  0442  0ABC               	incf	___fltol@f1+2,f
  1816  0443  1903               	skipnz
  1817  0444  0ABD               	incf	___fltol@f1+3,f
  1818  0445                     l355:
  1819  0445                     l345:
  1820  0445  0008               	return
  1821  0446                     __end_of___fltol:
  1822                           
  1823                           	psect	text10
  1824  061F                     __ptext10:	
  1825 ;; *************** function ___fldiv *****************
  1826 ;; Defined at:
  1827 ;;		line 8 in file "C:\Program Files\Microchip\xc8\v2.36\pic\sources\c90\common\sprcdiv.c"
  1828 ;; Parameters:    Size  Location     Type
  1829 ;;  a               4    0[BANK0 ] long 
  1830 ;;  b               4    4[BANK0 ] long 
  1831 ;; Auto vars:     Size  Location     Type
  1832 ;;  grs             4   20[BANK0 ] unsigned long 
  1833 ;;  rem             4   13[BANK0 ] unsigned long 
  1834 ;;  new_exp         2   18[BANK0 ] int 
  1835 ;;  aexp            1   25[BANK0 ] unsigned char 
  1836 ;;  bexp            1   24[BANK0 ] unsigned char 
  1837 ;;  sign            1   17[BANK0 ] unsigned char 
  1838 ;; Return value:  Size  Location     Type
  1839 ;;                  4    0[BANK0 ] unsigned char 
  1840 ;; Registers used:
  1841 ;;		wreg, status,2, status,0, btemp+1
  1842 ;; Tracked objects:
  1843 ;;		On entry : 0/0
  1844 ;;		On exit  : 0/0
  1845 ;;		Unchanged: 0/0
  1846 ;; Data sizes:     COMMON   BANK0   BANK1   BANK3   BANK2
  1847 ;;      Params:         0       8       0       0       0
  1848 ;;      Locals:         0      13       0       0       0
  1849 ;;      Temps:          0       5       0       0       0
  1850 ;;      Totals:         0      26       0       0       0
  1851 ;;Total ram usage:       26 bytes
  1852 ;; Hardware stack levels used: 1
  1853 ;; This function calls:
  1854 ;;		Nothing
  1855 ;; This function is called by:
  1856 ;;		_main
  1857 ;; This function uses a non-reentrant model
  1858 ;;
  1859                           
  1860  061F                     ___fldiv:	
  1861                           ;psect for function ___fldiv
  1862                           
  1863  061F                     l1009:	
  1864                           ;incstack = 0
  1865                           ; Regs used in ___fldiv: [wreg+status,2+status,0+btemp+1]
  1866                           
  1867  061F  1283               	bcf	3,5	;RP0=0, select bank0
  1868  0620  1303               	bcf	3,6	;RP1=0, select bank0
  1869  0621  0827               	movf	___fldiv@b+3,w
  1870  0622  3980               	andlw	128
  1871  0623  00A8               	movwf	??___fldiv
  1872  0624  0828               	movf	??___fldiv,w
  1873  0625  00B1               	movwf	___fldiv@sign
  1874  0626                     l1011:
  1875  0626  0827               	movf	___fldiv@b+3,w
  1876  0627  00A8               	movwf	??___fldiv
  1877  0628  0728               	addwf	??___fldiv,w
  1878  0629  00A9               	movwf	??___fldiv+1
  1879  062A  0829               	movf	??___fldiv+1,w
  1880  062B  00B8               	movwf	___fldiv@bexp
  1881  062C                     l1013:
  1882  062C  1FA6               	btfss	___fldiv@b+2,7
  1883  062D  2E2F               	goto	u711
  1884  062E  2E30               	goto	u710
  1885  062F                     u711:
  1886  062F  2E31               	goto	l1017
  1887  0630                     u710:
  1888  0630                     l1015:
  1889  0630  1438               	bsf	___fldiv@bexp,0
  1890  0631                     l1017:
  1891  0631  0838               	movf	___fldiv@bexp,w
  1892  0632  1903               	btfsc	3,2
  1893  0633  2E35               	goto	u721
  1894  0634  2E36               	goto	u720
  1895  0635                     u721:
  1896  0635  2E46               	goto	l1027
  1897  0636                     u720:
  1898  0636                     l1019:
  1899  0636  0A38               	incf	___fldiv@bexp,w
  1900  0637  1D03               	btfss	3,2
  1901  0638  2E3A               	goto	u731
  1902  0639  2E3B               	goto	u730
  1903  063A                     u731:
  1904  063A  2E43               	goto	l1023
  1905  063B                     u730:
  1906  063B                     l1021:
  1907  063B  3000               	movlw	0
  1908  063C  00A7               	movwf	___fldiv@b+3
  1909  063D  3000               	movlw	0
  1910  063E  00A6               	movwf	___fldiv@b+2
  1911  063F  3000               	movlw	0
  1912  0640  00A5               	movwf	___fldiv@b+1
  1913  0641  3000               	movlw	0
  1914  0642  00A4               	movwf	___fldiv@b
  1915  0643                     l1023:
  1916  0643  17A6               	bsf	___fldiv@b+2,7
  1917  0644                     l1025:
  1918  0644  01A7               	clrf	___fldiv@b+3
  1919  0645  2E4E               	goto	l1029
  1920  0646                     l1027:
  1921  0646  3000               	movlw	0
  1922  0647  00A7               	movwf	___fldiv@b+3
  1923  0648  3000               	movlw	0
  1924  0649  00A6               	movwf	___fldiv@b+2
  1925  064A  3000               	movlw	0
  1926  064B  00A5               	movwf	___fldiv@b+1
  1927  064C  3000               	movlw	0
  1928  064D  00A4               	movwf	___fldiv@b
  1929  064E                     l1029:
  1930  064E  0823               	movf	___fldiv@a+3,w
  1931  064F  3980               	andlw	128
  1932  0650  00A8               	movwf	??___fldiv
  1933  0651  0828               	movf	??___fldiv,w
  1934  0652  06B1               	xorwf	___fldiv@sign,f
  1935  0653                     l1031:
  1936  0653  0823               	movf	___fldiv@a+3,w
  1937  0654  00A8               	movwf	??___fldiv
  1938  0655  0728               	addwf	??___fldiv,w
  1939  0656  00A9               	movwf	??___fldiv+1
  1940  0657  0829               	movf	??___fldiv+1,w
  1941  0658  00B9               	movwf	___fldiv@aexp
  1942  0659                     l1033:
  1943  0659  1FA2               	btfss	___fldiv@a+2,7
  1944  065A  2E5C               	goto	u741
  1945  065B  2E5D               	goto	u740
  1946  065C                     u741:
  1947  065C  2E5E               	goto	l1037
  1948  065D                     u740:
  1949  065D                     l1035:
  1950  065D  1439               	bsf	___fldiv@aexp,0
  1951  065E                     l1037:
  1952  065E  0839               	movf	___fldiv@aexp,w
  1953  065F  1903               	btfsc	3,2
  1954  0660  2E62               	goto	u751
  1955  0661  2E63               	goto	u750
  1956  0662                     u751:
  1957  0662  2E73               	goto	l1047
  1958  0663                     u750:
  1959  0663                     l1039:
  1960  0663  0A39               	incf	___fldiv@aexp,w
  1961  0664  1D03               	btfss	3,2
  1962  0665  2E67               	goto	u761
  1963  0666  2E68               	goto	u760
  1964  0667                     u761:
  1965  0667  2E70               	goto	l1043
  1966  0668                     u760:
  1967  0668                     l1041:
  1968  0668  3000               	movlw	0
  1969  0669  00A3               	movwf	___fldiv@a+3
  1970  066A  3000               	movlw	0
  1971  066B  00A2               	movwf	___fldiv@a+2
  1972  066C  3000               	movlw	0
  1973  066D  00A1               	movwf	___fldiv@a+1
  1974  066E  3000               	movlw	0
  1975  066F  00A0               	movwf	___fldiv@a
  1976  0670                     l1043:
  1977  0670  17A2               	bsf	___fldiv@a+2,7
  1978  0671                     l1045:
  1979  0671  01A3               	clrf	___fldiv@a+3
  1980  0672  2E7B               	goto	l508
  1981  0673                     l1047:
  1982  0673  3000               	movlw	0
  1983  0674  00A3               	movwf	___fldiv@a+3
  1984  0675  3000               	movlw	0
  1985  0676  00A2               	movwf	___fldiv@a+2
  1986  0677  3000               	movlw	0
  1987  0678  00A1               	movwf	___fldiv@a+1
  1988  0679  3000               	movlw	0
  1989  067A  00A0               	movwf	___fldiv@a
  1990  067B                     l508:
  1991  067B  0823               	movf	___fldiv@a+3,w
  1992  067C  0422               	iorwf	___fldiv@a+2,w
  1993  067D  0421               	iorwf	___fldiv@a+1,w
  1994  067E  0420               	iorwf	___fldiv@a,w
  1995  067F  1D03               	skipz
  1996  0680  2E82               	goto	u771
  1997  0681  2E83               	goto	u770
  1998  0682                     u771:
  1999  0682  2E9C               	goto	l1057
  2000  0683                     u770:
  2001  0683                     l1049:
  2002  0683  3000               	movlw	0
  2003  0684  00A7               	movwf	___fldiv@b+3
  2004  0685  3000               	movlw	0
  2005  0686  00A6               	movwf	___fldiv@b+2
  2006  0687  3000               	movlw	0
  2007  0688  00A5               	movwf	___fldiv@b+1
  2008  0689  3000               	movlw	0
  2009  068A  00A4               	movwf	___fldiv@b
  2010  068B  3080               	movlw	128
  2011  068C  04A6               	iorwf	___fldiv@b+2,f
  2012  068D  307F               	movlw	127
  2013  068E  04A7               	iorwf	___fldiv@b+3,f
  2014  068F                     l1051:
  2015  068F  0831               	movf	___fldiv@sign,w
  2016  0690  00A8               	movwf	??___fldiv
  2017  0691  0828               	movf	??___fldiv,w
  2018  0692  04A7               	iorwf	___fldiv@b+3,f
  2019  0693                     l1053:
  2020  0693  0827               	movf	___fldiv@b+3,w
  2021  0694  00A3               	movwf	?___fldiv+3
  2022  0695  0826               	movf	___fldiv@b+2,w
  2023  0696  00A2               	movwf	?___fldiv+2
  2024  0697  0825               	movf	___fldiv@b+1,w
  2025  0698  00A1               	movwf	?___fldiv+1
  2026  0699  0824               	movf	___fldiv@b,w
  2027  069A  00A0               	movwf	?___fldiv
  2028  069B  2FFB               	goto	l510
  2029  069C                     l1057:
  2030  069C  0838               	movf	___fldiv@bexp,w
  2031  069D  1D03               	btfss	3,2
  2032  069E  2EA0               	goto	u781
  2033  069F  2EA1               	goto	u780
  2034  06A0                     u781:
  2035  06A0  2EAA               	goto	l1063
  2036  06A1                     u780:
  2037  06A1                     l1059:
  2038  06A1  3000               	movlw	0
  2039  06A2  00A3               	movwf	?___fldiv+3
  2040  06A3  3000               	movlw	0
  2041  06A4  00A2               	movwf	?___fldiv+2
  2042  06A5  3000               	movlw	0
  2043  06A6  00A1               	movwf	?___fldiv+1
  2044  06A7  3000               	movlw	0
  2045  06A8  00A0               	movwf	?___fldiv
  2046  06A9  2FFB               	goto	l510
  2047  06AA                     l1063:
  2048  06AA  0838               	movf	___fldiv@bexp,w
  2049  06AB  00A8               	movwf	??___fldiv
  2050  06AC  01A9               	clrf	??___fldiv+1
  2051  06AD  0829               	movf	??___fldiv+1,w
  2052  06AE  00AB               	movwf	??___fldiv+3
  2053  06AF  0839               	movf	___fldiv@aexp,w
  2054  06B0  0228               	subwf	??___fldiv,w
  2055  06B1  00AA               	movwf	??___fldiv+2
  2056  06B2  1C03               	skipc
  2057  06B3  03AB               	decf	??___fldiv+3,f
  2058  06B4  082A               	movf	??___fldiv+2,w
  2059  06B5  3E7F               	addlw	127
  2060  06B6  00B2               	movwf	___fldiv@new_exp
  2061  06B7  082B               	movf	??___fldiv+3,w
  2062  06B8  1803               	skipnc
  2063  06B9  3E01               	addlw	1
  2064  06BA  3E00               	addlw	0
  2065  06BB  00B3               	movwf	___fldiv@new_exp+1
  2066  06BC                     l1065:
  2067  06BC  0827               	movf	___fldiv@b+3,w
  2068  06BD  00B0               	movwf	___fldiv@rem+3
  2069  06BE  0826               	movf	___fldiv@b+2,w
  2070  06BF  00AF               	movwf	___fldiv@rem+2
  2071  06C0  0825               	movf	___fldiv@b+1,w
  2072  06C1  00AE               	movwf	___fldiv@rem+1
  2073  06C2  0824               	movf	___fldiv@b,w
  2074  06C3  00AD               	movwf	___fldiv@rem
  2075  06C4                     l1067:
  2076  06C4  3000               	movlw	0
  2077  06C5  00A7               	movwf	___fldiv@b+3
  2078  06C6  3000               	movlw	0
  2079  06C7  00A6               	movwf	___fldiv@b+2
  2080  06C8  3000               	movlw	0
  2081  06C9  00A5               	movwf	___fldiv@b+1
  2082  06CA  3000               	movlw	0
  2083  06CB  00A4               	movwf	___fldiv@b
  2084  06CC                     l1069:
  2085  06CC  3000               	movlw	0
  2086  06CD  00B7               	movwf	___fldiv@grs+3
  2087  06CE  3000               	movlw	0
  2088  06CF  00B6               	movwf	___fldiv@grs+2
  2089  06D0  3000               	movlw	0
  2090  06D1  00B5               	movwf	___fldiv@grs+1
  2091  06D2  3000               	movlw	0
  2092  06D3  00B4               	movwf	___fldiv@grs
  2093  06D4                     l1071:
  2094  06D4  01B9               	clrf	___fldiv@aexp
  2095  06D5  2F20               	goto	l1091
  2096  06D6                     l1073:
  2097  06D6  0839               	movf	___fldiv@aexp,w
  2098  06D7  1903               	btfsc	3,2
  2099  06D8  2EDA               	goto	u791
  2100  06D9  2EDB               	goto	u790
  2101  06DA                     u791:
  2102  06DA  2EFB               	goto	l1083
  2103  06DB                     u790:
  2104  06DB                     l1075:
  2105  06DB  3001               	movlw	1
  2106  06DC  00A8               	movwf	??___fldiv
  2107  06DD                     u805:
  2108  06DD  1003               	clrc
  2109  06DE  0DAD               	rlf	___fldiv@rem,f
  2110  06DF  0DAE               	rlf	___fldiv@rem+1,f
  2111  06E0  0DAF               	rlf	___fldiv@rem+2,f
  2112  06E1  0DB0               	rlf	___fldiv@rem+3,f
  2113  06E2  0BA8               	decfsz	??___fldiv,f
  2114  06E3  2EDD               	goto	u805
  2115  06E4  3001               	movlw	1
  2116  06E5  00A8               	movwf	??___fldiv
  2117  06E6                     u815:
  2118  06E6  1003               	clrc
  2119  06E7  0DA4               	rlf	___fldiv@b,f
  2120  06E8  0DA5               	rlf	___fldiv@b+1,f
  2121  06E9  0DA6               	rlf	___fldiv@b+2,f
  2122  06EA  0DA7               	rlf	___fldiv@b+3,f
  2123  06EB  0BA8               	decfsz	??___fldiv,f
  2124  06EC  2EE6               	goto	u815
  2125  06ED                     l1077:
  2126  06ED  1FB7               	btfss	___fldiv@grs+3,7
  2127  06EE  2EF0               	goto	u821
  2128  06EF  2EF1               	goto	u820
  2129  06F0                     u821:
  2130  06F0  2EF2               	goto	l1081
  2131  06F1                     u820:
  2132  06F1                     l1079:
  2133  06F1  1424               	bsf	___fldiv@b,0
  2134  06F2                     l1081:
  2135  06F2  3001               	movlw	1
  2136  06F3  00A8               	movwf	??___fldiv
  2137  06F4                     u835:
  2138  06F4  1003               	clrc
  2139  06F5  0DB4               	rlf	___fldiv@grs,f
  2140  06F6  0DB5               	rlf	___fldiv@grs+1,f
  2141  06F7  0DB6               	rlf	___fldiv@grs+2,f
  2142  06F8  0DB7               	rlf	___fldiv@grs+3,f
  2143  06F9  0BA8               	decfsz	??___fldiv,f
  2144  06FA  2EF4               	goto	u835
  2145  06FB                     l1083:
  2146  06FB  0823               	movf	___fldiv@a+3,w
  2147  06FC  0230               	subwf	___fldiv@rem+3,w
  2148  06FD  1D03               	skipz
  2149  06FE  2F09               	goto	u845
  2150  06FF  0822               	movf	___fldiv@a+2,w
  2151  0700  022F               	subwf	___fldiv@rem+2,w
  2152  0701  1D03               	skipz
  2153  0702  2F09               	goto	u845
  2154  0703  0821               	movf	___fldiv@a+1,w
  2155  0704  022E               	subwf	___fldiv@rem+1,w
  2156  0705  1D03               	skipz
  2157  0706  2F09               	goto	u845
  2158  0707  0820               	movf	___fldiv@a,w
  2159  0708  022D               	subwf	___fldiv@rem,w
  2160  0709                     u845:
  2161  0709  1C03               	skipc
  2162  070A  2F0C               	goto	u841
  2163  070B  2F0D               	goto	u840
  2164  070C                     u841:
  2165  070C  2F1C               	goto	l1089
  2166  070D                     u840:
  2167  070D                     l1085:
  2168  070D  1737               	bsf	___fldiv@grs+3,6
  2169  070E                     l1087:
  2170  070E  0820               	movf	___fldiv@a,w
  2171  070F  02AD               	subwf	___fldiv@rem,f
  2172  0710  0821               	movf	___fldiv@a+1,w
  2173  0711  1C03               	skipc
  2174  0712  0F21               	incfsz	___fldiv@a+1,w
  2175  0713  02AE               	subwf	___fldiv@rem+1,f
  2176  0714  0822               	movf	___fldiv@a+2,w
  2177  0715  1C03               	skipc
  2178  0716  0F22               	incfsz	___fldiv@a+2,w
  2179  0717  02AF               	subwf	___fldiv@rem+2,f
  2180  0718  0823               	movf	___fldiv@a+3,w
  2181  0719  1C03               	skipc
  2182  071A  0F23               	incfsz	___fldiv@a+3,w
  2183  071B  02B0               	subwf	___fldiv@rem+3,f
  2184  071C                     l1089:
  2185  071C  3001               	movlw	1
  2186  071D  00A8               	movwf	??___fldiv
  2187  071E  0828               	movf	??___fldiv,w
  2188  071F  07B9               	addwf	___fldiv@aexp,f
  2189  0720                     l1091:
  2190  0720  301A               	movlw	26
  2191  0721  0239               	subwf	___fldiv@aexp,w
  2192  0722  1C03               	skipc
  2193  0723  2F25               	goto	u851
  2194  0724  2F26               	goto	u850
  2195  0725                     u851:
  2196  0725  2ED6               	goto	l1073
  2197  0726                     u850:
  2198  0726                     l1093:
  2199  0726  0830               	movf	___fldiv@rem+3,w
  2200  0727  042F               	iorwf	___fldiv@rem+2,w
  2201  0728  042E               	iorwf	___fldiv@rem+1,w
  2202  0729  042D               	iorwf	___fldiv@rem,w
  2203  072A  1903               	skipnz
  2204  072B  2F2D               	goto	u861
  2205  072C  2F2E               	goto	u860
  2206  072D                     u861:
  2207  072D  2F4D               	goto	l1107
  2208  072E                     u860:
  2209  072E                     l1095:
  2210  072E  1434               	bsf	___fldiv@grs,0
  2211  072F  2F4D               	goto	l1107
  2212  0730                     l1097:
  2213  0730  3001               	movlw	1
  2214  0731  00A8               	movwf	??___fldiv
  2215  0732                     u875:
  2216  0732  1003               	clrc
  2217  0733  0DA4               	rlf	___fldiv@b,f
  2218  0734  0DA5               	rlf	___fldiv@b+1,f
  2219  0735  0DA6               	rlf	___fldiv@b+2,f
  2220  0736  0DA7               	rlf	___fldiv@b+3,f
  2221  0737  0BA8               	decfsz	??___fldiv,f
  2222  0738  2F32               	goto	u875
  2223  0739                     l1099:
  2224  0739  1FB7               	btfss	___fldiv@grs+3,7
  2225  073A  2F3C               	goto	u881
  2226  073B  2F3D               	goto	u880
  2227  073C                     u881:
  2228  073C  2F3E               	goto	l1103
  2229  073D                     u880:
  2230  073D                     l1101:
  2231  073D  1424               	bsf	___fldiv@b,0
  2232  073E                     l1103:
  2233  073E  3001               	movlw	1
  2234  073F  00A8               	movwf	??___fldiv
  2235  0740                     u895:
  2236  0740  1003               	clrc
  2237  0741  0DB4               	rlf	___fldiv@grs,f
  2238  0742  0DB5               	rlf	___fldiv@grs+1,f
  2239  0743  0DB6               	rlf	___fldiv@grs+2,f
  2240  0744  0DB7               	rlf	___fldiv@grs+3,f
  2241  0745  0BA8               	decfsz	??___fldiv,f
  2242  0746  2F40               	goto	u895
  2243  0747                     l1105:
  2244  0747  30FF               	movlw	255
  2245  0748  07B2               	addwf	___fldiv@new_exp,f
  2246  0749  1803               	skipnc
  2247  074A  0AB3               	incf	___fldiv@new_exp+1,f
  2248  074B  30FF               	movlw	255
  2249  074C  07B3               	addwf	___fldiv@new_exp+1,f
  2250  074D                     l1107:
  2251  074D  1FA6               	btfss	___fldiv@b+2,7
  2252  074E  2F50               	goto	u901
  2253  074F  2F51               	goto	u900
  2254  0750                     u901:
  2255  0750  2F30               	goto	l1097
  2256  0751                     u900:
  2257  0751                     l1109:
  2258  0751  01B9               	clrf	___fldiv@aexp
  2259  0752                     l1111:
  2260  0752  1FB7               	btfss	___fldiv@grs+3,7
  2261  0753  2F55               	goto	u911
  2262  0754  2F56               	goto	u910
  2263  0755                     u911:
  2264  0755  2F72               	goto	l1119
  2265  0756                     u910:
  2266  0756                     l1113:
  2267  0756  30FF               	movlw	255
  2268  0757  0534               	andwf	___fldiv@grs,w
  2269  0758  00A8               	movwf	??___fldiv
  2270  0759  30FF               	movlw	255
  2271  075A  0535               	andwf	___fldiv@grs+1,w
  2272  075B  00A9               	movwf	??___fldiv+1
  2273  075C  30FF               	movlw	255
  2274  075D  0536               	andwf	___fldiv@grs+2,w
  2275  075E  00AA               	movwf	??___fldiv+2
  2276  075F  307F               	movlw	127
  2277  0760  0537               	andwf	___fldiv@grs+3,w
  2278  0761  00AB               	movwf	??___fldiv+3
  2279  0762  082B               	movf	??___fldiv+3,w
  2280  0763  042A               	iorwf	??___fldiv+2,w
  2281  0764  0429               	iorwf	??___fldiv+1,w
  2282  0765  0428               	iorwf	??___fldiv,w
  2283  0766  1903               	skipnz
  2284  0767  2F69               	goto	u921
  2285  0768  2F6A               	goto	u920
  2286  0769                     u921:
  2287  0769  2F6D               	goto	l524
  2288  076A                     u920:
  2289  076A                     l1115:
  2290  076A  01B9               	clrf	___fldiv@aexp
  2291  076B  0AB9               	incf	___fldiv@aexp,f
  2292  076C  2F72               	goto	l1119
  2293  076D                     l524:
  2294  076D  1C24               	btfss	___fldiv@b,0
  2295  076E  2F70               	goto	u931
  2296  076F  2F71               	goto	u930
  2297  0770                     u931:
  2298  0770  2F72               	goto	l1119
  2299  0771                     u930:
  2300  0771  2F6A               	goto	l1115
  2301  0772                     l1119:
  2302  0772  0839               	movf	___fldiv@aexp,w
  2303  0773  1903               	btfsc	3,2
  2304  0774  2F76               	goto	u941
  2305  0775  2F77               	goto	u940
  2306  0776                     u941:
  2307  0776  2FA8               	goto	l1129
  2308  0777                     u940:
  2309  0777                     l1121:
  2310  0777  3001               	movlw	1
  2311  0778  07A4               	addwf	___fldiv@b,f
  2312  0779  3000               	movlw	0
  2313  077A  1803               	skipnc
  2314  077B  3001               	movlw	1
  2315  077C  07A5               	addwf	___fldiv@b+1,f
  2316  077D  3000               	movlw	0
  2317  077E  1803               	skipnc
  2318  077F  3001               	movlw	1
  2319  0780  07A6               	addwf	___fldiv@b+2,f
  2320  0781  3000               	movlw	0
  2321  0782  1803               	skipnc
  2322  0783  3001               	movlw	1
  2323  0784  07A7               	addwf	___fldiv@b+3,f
  2324  0785                     l1123:
  2325  0785  1C27               	btfss	___fldiv@b+3,0
  2326  0786  2F88               	goto	u951
  2327  0787  2F89               	goto	u950
  2328  0788                     u951:
  2329  0788  2FA8               	goto	l1129
  2330  0789                     u950:
  2331  0789                     l1125:
  2332  0789  0824               	movf	___fldiv@b,w
  2333  078A  00A8               	movwf	??___fldiv
  2334  078B  0825               	movf	___fldiv@b+1,w
  2335  078C  00A9               	movwf	??___fldiv+1
  2336  078D  0826               	movf	___fldiv@b+2,w
  2337  078E  00AA               	movwf	??___fldiv+2
  2338  078F  0827               	movf	___fldiv@b+3,w
  2339  0790  00AB               	movwf	??___fldiv+3
  2340  0791  3001               	movlw	1
  2341  0792  00AC               	movwf	??___fldiv+4
  2342  0793                     u965:
  2343  0793  0D2B               	rlf	??___fldiv+3,w
  2344  0794  0CAB               	rrf	??___fldiv+3,f
  2345  0795  0CAA               	rrf	??___fldiv+2,f
  2346  0796  0CA9               	rrf	??___fldiv+1,f
  2347  0797  0CA8               	rrf	??___fldiv,f
  2348  0798                     u960:
  2349  0798  0BAC               	decfsz	??___fldiv+4,f
  2350  0799  2F93               	goto	u965
  2351  079A  082B               	movf	??___fldiv+3,w
  2352  079B  00A7               	movwf	___fldiv@b+3
  2353  079C  082A               	movf	??___fldiv+2,w
  2354  079D  00A6               	movwf	___fldiv@b+2
  2355  079E  0829               	movf	??___fldiv+1,w
  2356  079F  00A5               	movwf	___fldiv@b+1
  2357  07A0  0828               	movf	??___fldiv,w
  2358  07A1  00A4               	movwf	___fldiv@b
  2359  07A2                     l1127:
  2360  07A2  3001               	movlw	1
  2361  07A3  07B2               	addwf	___fldiv@new_exp,f
  2362  07A4  1803               	skipnc
  2363  07A5  0AB3               	incf	___fldiv@new_exp+1,f
  2364  07A6  3000               	movlw	0
  2365  07A7  07B3               	addwf	___fldiv@new_exp+1,f
  2366  07A8                     l1129:
  2367  07A8  0833               	movf	___fldiv@new_exp+1,w
  2368  07A9  3A80               	xorlw	128
  2369  07AA  00FF               	movwf	btemp+1
  2370  07AB  3080               	movlw	128
  2371  07AC  027F               	subwf	btemp+1,w
  2372  07AD  1D03               	skipz
  2373  07AE  2FB1               	goto	u975
  2374  07AF  30FF               	movlw	255
  2375  07B0  0232               	subwf	___fldiv@new_exp,w
  2376  07B1                     u975:
  2377  07B1  1C03               	skipc
  2378  07B2  2FB4               	goto	u971
  2379  07B3  2FB5               	goto	u970
  2380  07B4                     u971:
  2381  07B4  2FC3               	goto	l1133
  2382  07B5                     u970:
  2383  07B5                     l1131:
  2384  07B5  30FF               	movlw	255
  2385  07B6  1283               	bcf	3,5	;RP0=0, select bank0
  2386  07B7  1303               	bcf	3,6	;RP1=0, select bank0
  2387  07B8  00B2               	movwf	___fldiv@new_exp
  2388  07B9  3000               	movlw	0
  2389  07BA  00B3               	movwf	___fldiv@new_exp+1
  2390  07BB  3000               	movlw	0
  2391  07BC  00A7               	movwf	___fldiv@b+3
  2392  07BD  3000               	movlw	0
  2393  07BE  00A6               	movwf	___fldiv@b+2
  2394  07BF  3000               	movlw	0
  2395  07C0  00A5               	movwf	___fldiv@b+1
  2396  07C1  3000               	movlw	0
  2397  07C2  00A4               	movwf	___fldiv@b
  2398  07C3                     l1133:
  2399  07C3  1283               	bcf	3,5	;RP0=0, select bank0
  2400  07C4  1303               	bcf	3,6	;RP1=0, select bank0
  2401  07C5  0833               	movf	___fldiv@new_exp+1,w
  2402  07C6  3A80               	xorlw	128
  2403  07C7  00FF               	movwf	btemp+1
  2404  07C8  3080               	movlw	128
  2405  07C9  027F               	subwf	btemp+1,w
  2406  07CA  1D03               	skipz
  2407  07CB  2FCE               	goto	u985
  2408  07CC  3001               	movlw	1
  2409  07CD  0232               	subwf	___fldiv@new_exp,w
  2410  07CE                     u985:
  2411  07CE  1803               	skipnc
  2412  07CF  2FD1               	goto	u981
  2413  07D0  2FD2               	goto	u980
  2414  07D1                     u981:
  2415  07D1  2FDF               	goto	l530
  2416  07D2                     u980:
  2417  07D2                     l1135:
  2418  07D2  1283               	bcf	3,5	;RP0=0, select bank0
  2419  07D3  1303               	bcf	3,6	;RP1=0, select bank0
  2420  07D4  01B2               	clrf	___fldiv@new_exp
  2421  07D5  01B3               	clrf	___fldiv@new_exp+1
  2422  07D6                     l1137:
  2423  07D6  3000               	movlw	0
  2424  07D7  00A7               	movwf	___fldiv@b+3
  2425  07D8  3000               	movlw	0
  2426  07D9  00A6               	movwf	___fldiv@b+2
  2427  07DA  3000               	movlw	0
  2428  07DB  00A5               	movwf	___fldiv@b+1
  2429  07DC  3000               	movlw	0
  2430  07DD  00A4               	movwf	___fldiv@b
  2431  07DE                     l1139:
  2432  07DE  01B1               	clrf	___fldiv@sign
  2433  07DF                     l530:
  2434  07DF  1283               	bcf	3,5	;RP0=0, select bank0
  2435  07E0  1303               	bcf	3,6	;RP1=0, select bank0
  2436  07E1  0832               	movf	___fldiv@new_exp,w
  2437  07E2  00A8               	movwf	??___fldiv
  2438  07E3  0828               	movf	??___fldiv,w
  2439  07E4  00B8               	movwf	___fldiv@bexp
  2440  07E5                     l1141:
  2441  07E5  1C38               	btfss	___fldiv@bexp,0
  2442  07E6  2FE8               	goto	u991
  2443  07E7  2FE9               	goto	u990
  2444  07E8                     u991:
  2445  07E8  2FEB               	goto	l1145
  2446  07E9                     u990:
  2447  07E9                     l1143:
  2448  07E9  17A6               	bsf	___fldiv@b+2,7
  2449  07EA  2FEF               	goto	l532
  2450  07EB                     l1145:
  2451  07EB  307F               	movlw	127
  2452  07EC  00A8               	movwf	??___fldiv
  2453  07ED  0828               	movf	??___fldiv,w
  2454  07EE  05A6               	andwf	___fldiv@b+2,f
  2455  07EF                     l532:
  2456  07EF  0838               	movf	___fldiv@bexp,w
  2457  07F0  00A8               	movwf	??___fldiv
  2458  07F1  1003               	clrc
  2459  07F2  0C28               	rrf	??___fldiv,w
  2460  07F3  00A9               	movwf	??___fldiv+1
  2461  07F4  0829               	movf	??___fldiv+1,w
  2462  07F5  00A7               	movwf	___fldiv@b+3
  2463  07F6  0831               	movf	___fldiv@sign,w
  2464  07F7  00A8               	movwf	??___fldiv
  2465  07F8  0828               	movf	??___fldiv,w
  2466  07F9  04A7               	iorwf	___fldiv@b+3,f
  2467  07FA  2E93               	goto	l1053
  2468  07FB                     l510:
  2469  07FB  0008               	return
  2470  07FC                     __end_of___fldiv:
  2471  007E                     btemp	set	126	;btemp
  2472  007E                     wtemp0	set	126
  2473                           
  2474                           	psect	idloc
  2475                           
  2476                           ;Config register IDLOC0 @ 0x2000
  2477                           ;	unspecified, using default values
  2478  2000                     	org	8192
  2479  2000  3FFF               	dw	16383
  2480                           
  2481                           ;Config register IDLOC1 @ 0x2001
  2482                           ;	unspecified, using default values
  2483  2001                     	org	8193
  2484  2001  3FFF               	dw	16383
  2485                           
  2486                           ;Config register IDLOC2 @ 0x2002
  2487                           ;	unspecified, using default values
  2488  2002                     	org	8194
  2489  2002  3FFF               	dw	16383
  2490                           
  2491                           ;Config register IDLOC3 @ 0x2003
  2492                           ;	unspecified, using default values
  2493  2003                     	org	8195
  2494  2003  3FFF               	dw	16383
  2495                           
  2496                           	psect	config
  2497                           
  2498                           ;Config register CONFIG1 @ 0x2007
  2499                           ;	Oscillator Selection bits
  2500                           ;	FOSC = INTRC_NOCLKOUT, INTOSCIO oscillator: I/O function on RA6/OSC2/CLKOUT pin, I/O f
      +                          unction on RA7/OSC1/CLKIN
  2501                           ;	Watchdog Timer Enable bit
  2502                           ;	WDTE = OFF, WDT disabled and can be enabled by SWDTEN bit of the WDTCON register
  2503                           ;	Power-up Timer Enable bit
  2504                           ;	PWRTE = ON, PWRT enabled
  2505                           ;	RE3/MCLR pin function select bit
  2506                           ;	MCLRE = ON, RE3/MCLR pin function is MCLR
  2507                           ;	Code Protection bit
  2508                           ;	CP = OFF, Program memory code protection is disabled
  2509                           ;	Data Code Protection bit
  2510                           ;	CPD = OFF, Data memory code protection is disabled
  2511                           ;	Brown Out Reset Selection bits
  2512                           ;	BOREN = OFF, BOR disabled
  2513                           ;	Internal External Switchover bit
  2514                           ;	IESO = OFF, Internal/External Switchover mode is disabled
  2515                           ;	Fail-Safe Clock Monitor Enabled bit
  2516                           ;	FCMEN = ON, Fail-Safe Clock Monitor is enabled
  2517                           ;	Low Voltage Programming Enable bit
  2518                           ;	LVP = OFF, RB3 pin has digital I/O, HV on MCLR must be used for programming
  2519                           ;	In-Circuit Debugger Mode bit
  2520                           ;	DEBUG = 0x1, unprogrammed default
  2521  2007                     	org	8199
  2522  2007  28E4               	dw	10468
  2523                           
  2524                           ;Config register CONFIG2 @ 0x2008
  2525                           ;	Brown-out Reset Selection bit
  2526                           ;	BOR4V = BOR40V, Brown-out Reset set to 4.0V
  2527                           ;	Flash Program Memory Self Write Enable bits
  2528                           ;	WRT = OFF, Write protection off
  2529  2008                     	org	8200
  2530  2008  3FFF               	dw	16383

Data Sizes:
    Strings     0
    Constant    0
    Data        0
    BSS         0
    Persistent  0
    Stack       0

Auto Spaces:
    Space          Size  Autos    Used
    COMMON           14     14      14
    BANK0            80     42      42
    BANK1            80      0       0
    BANK3            96      0       0
    BANK2            96      0       0

Pointer List with Targets:

    None.

Critical Paths under _main in COMMON

    _main->___xxtofl
    ___fltol->___xxtofl
    ___fldiv->___xxtofl

Critical Paths under _main in BANK0

    _main->___fltol
    ___fltol->___fldiv

Critical Paths under _main in BANK1

    None.

Critical Paths under _main in BANK3

    None.

Critical Paths under _main in BANK2

    None.

Call Graph Tables:

 ---------------------------------------------------------------------------------
 (Depth) Function   	        Calls       Base Space   Used Autos Params    Refs
 ---------------------------------------------------------------------------------
 (0) _main                                                13    13      0    2265
                                             37 BANK0      5     5      0
                            ___fldiv
                            ___fltol
                           ___xxtofl
                        _direccional
                 _direccional_apagar
                  _vehiculo_adelante
                     _vehiculo_atras
                   _vehiculo_derecha
                   _vehiculo_detener
                 _vehiculo_izquierda
 ---------------------------------------------------------------------------------
 (1) _vehiculo_izquierda                                   0     0      0       0
 ---------------------------------------------------------------------------------
 (1) _vehiculo_detener                                     0     0      0       0
 ---------------------------------------------------------------------------------
 (1) _vehiculo_derecha                                     0     0      0       0
 ---------------------------------------------------------------------------------
 (1) _vehiculo_atras                                       0     0      0       0
 ---------------------------------------------------------------------------------
 (1) _vehiculo_adelante                                    0     0      0       0
 ---------------------------------------------------------------------------------
 (1) _direccional_apagar                                   0     0      0       0
 ---------------------------------------------------------------------------------
 (1) _direccional                                          2     0      2     174
                                              0 COMMON     2     0      2
 ---------------------------------------------------------------------------------
 (1) ___xxtofl                                            14    10      4     398
                                              0 COMMON    14    10      4
 ---------------------------------------------------------------------------------
 (1) ___fltol                                             11     7      4     305
                                             26 BANK0     11     7      4
                            ___fldiv (ARG)
                           ___xxtofl (ARG)
 ---------------------------------------------------------------------------------
 (1) ___fldiv                                             26    18      8    1273
                                              0 BANK0     26    18      8
                           ___xxtofl (ARG)
 ---------------------------------------------------------------------------------
 Estimated maximum stack depth 1
 ---------------------------------------------------------------------------------

 Call Graph Graphs:

 _main (ROOT)
   ___fldiv
     ___xxtofl (ARG)
   ___fltol
     ___fldiv (ARG)
     ___xxtofl (ARG)
   ___xxtofl
   _direccional
   _direccional_apagar
   _vehiculo_adelante
   _vehiculo_atras
   _vehiculo_derecha
   _vehiculo_detener
   _vehiculo_izquierda

 Address spaces:
Name               Size   Autos  Total    Cost      Usage
BITCOMMON            E      0       0       0        0.0%
EEDATA             100      0       0       0        0.0%
NULL                 0      0       0       0        0.0%
CODE                 0      0       0       0        0.0%
COMMON               E      E       E       1      100.0%
BITSFR0              0      0       0       1        0.0%
SFR0                 0      0       0       1        0.0%
BITSFR1              0      0       0       2        0.0%
SFR1                 0      0       0       2        0.0%
STACK                0      0       0       2        0.0%
ABS                  0      0       0       3        0.0%
BITBANK0            50      0       0       4        0.0%
BITSFR3              0      0       0       4        0.0%
SFR3                 0      0       0       4        0.0%
BANK0               50     2A      2A       5       52.5%
BITSFR2              0      0       0       5        0.0%
SFR2                 0      0       0       5        0.0%
BITBANK1            50      0       0       6        0.0%
BANK1               50      0       0       7        0.0%
BITBANK3            60      0       0       8        0.0%
BANK3               60      0       0       9        0.0%
BITBANK2            60      0       0      10        0.0%
BANK2               60      0       0      11        0.0%
DATA                 0      0       0      12        0.0%


Microchip Technology PIC Macro Assembler V2.36 build 20220127204148 
Symbol Table                                                                                   Wed Apr 27 06:38:08 2022

              ___fldiv@aexp 0039                ___fldiv@bexp 0038                ___fldiv@sign 0031  
          ??_vehiculo_atras 0070                          l31 039D                          l40 03A4  
                        l34 03AB                          l51 0396                          l43 03B2  
                        l60 0591                          l37 03B9                          l46 03C5  
                        l62 0595                          l48 03C9                          l57 058C  
                        l59 0590                         l510 07FB                         l352 0430  
                       l345 0445                         l530 07DF                         l355 0445  
                       l532 07EF                         l524 076D                         l508 067B  
                       l605 04C9                         l606 04D5                         l592 0468  
                       l594 04FF                         l598 04AD                         l961 03B3  
                       l971 0392                         l963 039E                         l981 03F5  
                       l973 03CA                         l957 0397                         l965 03AC  
                       l983 03F6                         l975 03D7                         l967 03BA  
                       l959 03A5                         l985 03FE                         l969 03C0  
                       l995 040C                         l987 0400                         l979 03E0  
                       l989 0404                         l997 041E                         _RA2 002A  
                       _RA3 002B                         u600 03C0                         u601 03BF  
                       u610 03D7                         u611 03D6                         u700 043A  
                       u620 03EE                         u701 0439                         u710 0630  
                       u630 0404                         u711 062F                         u631 0403  
                       u720 0636                         u640 040B                         u721 0635  
                       u641 040A                         u625 03E9                         u730 063B  
                       u731 063A                         u900 0751                         u820 06F1  
                       u740 065D                         u660 041D                         u901 0750  
                       u821 06F0                         u805 06DD                         u741 065C  
                       u661 041C                         u910 0756                         u750 0663  
                       u670 0424                         u911 0755                         u815 06E6  
                       u751 0662                         u671 0423                         u655 040D  
                       u920 076A                         u840 070D                         u760 0668  
                       u921 0769                         u841 070C                         u761 0667  
                       u930 0771                         u850 0726                         u770 0683  
                       u690 0435                         u931 0770                         u851 0725  
                       u835 06F4                         u771 0682                         u691 0434  
                       u940 0777                         u860 072E                         u780 06A1  
                       u941 0776                         u861 072D                         u845 0709  
                       u781 06A0                         u685 0427                         u950 0789  
                       u790 06DB                         u951 0788                         u791 06DA  
                       u960 0798                         u880 073D                         u881 073C  
                       u970 07B5           ?_vehiculo_derecha 0070                         u971 07B4  
                       u875 0732                         u980 07D2                         u981 07D1  
                       u965 0793                         u990 07E9                         u991 07E8  
                       u975 07B1                         u895 0740                         u985 07CE  
         ?_vehiculo_detener 0070           _vehiculo_adelante 0397          ??_vehiculo_derecha 0070  
        ??_vehiculo_detener 0070          ?_vehiculo_adelante 0070                ___fltol@exp1 0044  
                      l1011 0626                        l1003 0425                        l1101 073D  
                      l1021 063B                        l1013 062C                        l1005 0435  
                      l1111 0752                        l1103 073E                        l1031 0653  
                      l1023 0643                        l1015 0630                        l1007 043A  
                      l1121 0777                        l1113 0756                        l1105 0747  
                      l1041 0668                        l1033 0659                        l1025 0644  
                      l1017 0631                        l1009 061F                        l1201 050C  
                      l1131 07B5                        l1123 0785                        l1115 076A  
                      l1107 074D                        l1051 068F                        l1043 0670  
                      l1035 065D                        l1019 0636                        l1027 0646  
                      l1211 0529                        l1203 050C                        l1141 07E5  
                      l1133 07C3                        l1125 0789                        l1109 0751  
                      l1053 0693                        l1045 0671                        l1037 065E  
                      l1029 064E                        l1221 0573                        l1213 0540  
                      l1205 0510                        l1143 07E9                        l1135 07D2  
                      l1127 07A2                        l1119 0772                        l1071 06D4  
                      l1063 06AA                        l1039 0663                        l1047 0673  
                      l1151 0447                        l1231 0589                        l1223 0578  
                      l1215 054D                        l1207 0511                        l1145 07EB  
                      l1137 07D6                        l1129 07A8                        l1081 06F2  
                      l1073 06D6                        l1065 06BC                        l1049 0683  
                      l1057 069C                        l1153 044C                        l1241 05EA  
                      l1233 0596                        l1225 057D                        l1217 0560  
                      l1209 0516                        l1139 07DE                        l1075 06DB  
                      l1083 06FB                        l1091 0720                        l1067 06C4  
                      l1059 06A1                        l1171 0496                        l1163 0479  
                      l1155 0450                        l1243 05F9                        l1235 059A  
                      l1227 0580                        l1219 056E                        l1093 0726  
                      l1085 070D                        l1077 06ED                        l1069 06CC  
                      l1181 04CD                        l1173 04A4                        l1165 047E  
                      l1157 0460                        l1245 0608                        l1237 05D5  
                      l1229 0581                        l1095 072E                        l1087 070E  
                      l1079 06F1                        l1191 04F7                        l1183 04D7  
                      l1175 04B4                        l1167 048B                        l1159 0470  
                      l1247 060D                        l1239 05DD                        l1097 0730  
                      l1089 071C                        l1185 04ED                        l1177 04BF  
                      l1169 0492                        l1099 0739                        l1187 04F2  
                      l1179 04C3                        l1195 0500                        l1189 04F6  
                      l1197 0506                        l1199 0509                        u1000 044C  
                      u1001 044B                        u1010 0450                        u1011 044F  
                      u1100 04CD                        u1020 0470                        u1101 04CC  
                      u1021 046F                        u1110 04E2                        u1120 04F2  
                      u1040 0491                        u1121 04F1                        u1041 0490  
                      u1130 04F6                        u1131 04F5                        u1115 04DD  
                      u1035 0483                        u1060 04B3                        u1140 0590  
                      u1061 04B2                        u1141 058F                        u1150 0595  
                      u1055 04A5                        u1151 0594                        u1207 053A  
                      u1080 04C3                        u1160 05EA                        u1081 04C2  
                      u1161 05E9                        u1217 0555                        u1090 04C9  
                      u1170 05F9                        u1091 04C8                        u1075 04B8  
                      u1171 05F8                        u1227 0568                        u1180 0608  
                      u1181 0607                        u1165 05E6                        u1237 0586  
                      u1247 0615                        u1175 05F5                        u1185 0604  
                      u1197 051E         ??_vehiculo_adelante 0070                        _main 0500  
                      btemp 007E                        start 0000             ___fldiv@new_exp 0032  
             ___fltol@sign1 0043   __end_of_vehiculo_adelante 039E                       ?_main 0070  
           __end_of___fldiv 07FC             __end_of___fltol 0446                       _ANSEL 0188  
                     _T1CON 0010                       _TMR1H 000F                       _TMR1L 000E  
                     _TRISA 0085                       _TRISB 0086                       _TRISC 0087  
                     main@a 0048                       status 0003                       wtemp0 007E  
           __initialization 07FC                __end_of_main 061F                      ??_main 0045  
        _vehiculo_izquierda 03B3         ?_vehiculo_izquierda 0070                      _TMR1ON 0080  
          __end_of___xxtofl 0500        ??_vehiculo_izquierda 0070                   ??___fldiv 0028  
                 ??___fltol 003E  __end_of_direccional_apagar 0397                ___xxtofl@arg 007A  
              ___xxtofl@exp 0079                ___xxtofl@val 0070     __end_of__initialization 07FC  
                ___fltol@f1 003A              __pcstackCOMMON 0070                  __pmaintext 0500  
                 ?___xxtofl 0070                     ___fldiv 061F                     ___fltol 03CA  
                   __ptext1 03B3                     __ptext2 03AC                     __ptext3 03A5  
                   __ptext4 039E                     __ptext5 0397                     __ptext6 0392  
                   __ptext7 03BA                     __ptext8 0446                     __ptext9 03CA  
                ??___xxtofl 0074        end_of_initialization 07FC                   _PORTAbits 0005  
                 _PORTBbits 0006                   _PORTCbits 0007               ___xxtofl@sign 0078  
               ___fldiv@grs 0034                 ___fldiv@rem 002D               ??_direccional 0072  
          _vehiculo_derecha 03A5            _vehiculo_detener 03AC          _direccional_apagar 0392  
       ?_direccional_apagar 0070         start_initialization 07FC        ??_direccional_apagar 0070  
       __end_of_direccional 03CA                   ___fldiv@a 0020                   ___fldiv@b 0024  
                 ___latbits 0002              _vehiculo_atras 039E               __pcstackBANK0 0020  
                  ?___fldiv 0020                    ?___fltol 003A      __end_of_vehiculo_atras 03A5  
               _direccional 03BA    __end_of_vehiculo_derecha 03AC    __end_of_vehiculo_detener 03B3  
           ?_vehiculo_atras 0070                    ___xxtofl 0446                    __ptext10 061F  
__end_of_vehiculo_izquierda 03BA               direccional@op 0070                ?_direccional 0070  
